(dp0
S'ref_point'
p1
(dp2
S'cuHPh1x3'
p3
S'0'
p4
sS'cuHAbs1x3'
p5
g4
ssS'rw_dict'
p6
(dp7
S'cuHPh1x3_0p_cuHPh2x3_0p_cuHPh3x1_0p_cuHPh3x2_0p_cuHPh3x3_0p_cuHAbs1x3_0p_cuHAbs2x3_0p_cuHAbs3x1_0p_cuHAbs3x2_0p_cuHAbs3x3_1p'
p8
I10
sS'cuHPh1x3_2p_cuHPh2x3_0p_cuHPh3x1_0p_cuHPh3x2_0p_cuHPh3x3_0p_cuHAbs1x3_0p_cuHAbs2x3_0p_cuHAbs3x1_0p_cuHAbs3x2_0p_cuHAbs3x3_0p'
p9
I11
sS'cuHPh1x3_1p_cuHPh2x3_0p_cuHPh3x1_0p_cuHPh3x2_0p_cuHPh3x3_0p_cuHAbs1x3_0p_cuHAbs2x3_0p_cuHAbs3x1_0p_cuHAbs3x2_1p_cuHAbs3x3_0p'
p10
I19
sS'cuHPh1x3_0p_cuHPh2x3_0p_cuHPh3x1_0p_cuHPh3x2_0p_cuHPh3x3_0p_cuHAbs1x3_0p_cuHAbs2x3_0p_cuHAbs3x1_0p_cuHAbs3x2_2p_cuHAbs3x3_0p'
p11
I63
sS'cuHPh1x3_0p_cuHPh2x3_0p_cuHPh3x1_1p_cuHPh3x2_0p_cuHPh3x3_0p_cuHAbs1x3_0p_cuHAbs2x3_0p_cuHAbs3x1_1p_cuHAbs3x2_0p_cuHAbs3x3_0p'
p12
I35
sS'cuHPh1x3_0p_cuHPh2x3_0p_cuHPh3x1_0p_cuHPh3x2_0p_cuHPh3x3_0p_cuHAbs1x3_0p_cuHAbs2x3_1p_cuHAbs3x1_0p_cuHAbs3x2_1p_cuHAbs3x3_0p'
p13
I58
sS'cuHPh1x3_1p_cuHPh2x3_0p_cuHPh3x1_0p_cuHPh3x2_1p_cuHPh3x3_0p_cuHAbs1x3_0p_cuHAbs2x3_0p_cuHAbs3x1_0p_cuHAbs3x2_0p_cuHAbs3x3_0p'
p14
I14
sS'cuHPh1x3_0p_cuHPh2x3_0p_cuHPh3x1_0p_cuHPh3x2_0p_cuHPh3x3_0p_cuHAbs1x3_0p_cuHAbs2x3_0p_cuHAbs3x1_0p_cuHAbs3x2_1p_cuHAbs3x3_1p'
p15
I64
sS'cuHPh1x3_0p_cuHPh2x3_1p_cuHPh3x1_0p_cuHPh3x2_1p_cuHPh3x3_0p_cuHAbs1x3_0p_cuHAbs2x3_0p_cuHAbs3x1_0p_cuHAbs3x2_0p_cuHAbs3x3_0p'
p16
I23
sS'cuHPh1x3_1p_cuHPh2x3_0p_cuHPh3x1_0p_cuHPh3x2_0p_cuHPh3x3_0p_cuHAbs1x3_0p_cuHAbs2x3_0p_cuHAbs3x1_1p_cuHAbs3x2_0p_cuHAbs3x3_0p'
p17
I18
sS'cuHPh1x3_1p_cuHPh2x3_0p_cuHPh3x1_0p_cuHPh3x2_0p_cuHPh3x3_0p_cuHAbs1x3_0p_cuHAbs2x3_1p_cuHAbs3x1_0p_cuHAbs3x2_0p_cuHAbs3x3_0p'
p18
I17
sS'cuHPh1x3_1p_cuHPh2x3_0p_cuHPh3x1_0p_cuHPh3x2_0p_cuHPh3x3_0p_cuHAbs1x3_1p_cuHAbs2x3_0p_cuHAbs3x1_0p_cuHAbs3x2_0p_cuHAbs3x3_0p'
p19
I16
sS'cuHPh1x3_0p_cuHPh2x3_0p_cuHPh3x1_0p_cuHPh3x2_1p_cuHPh3x3_0p_cuHAbs1x3_0p_cuHAbs2x3_0p_cuHAbs3x1_0p_cuHAbs3x2_0p_cuHAbs3x3_1p'
p20
I44
sS'cuHPh1x3_0p_cuHPh2x3_0p_cuHPh3x1_1p_cuHPh3x2_0p_cuHPh3x3_0p_cuHAbs1x3_0p_cuHAbs2x3_1p_cuHAbs3x1_0p_cuHAbs3x2_0p_cuHAbs3x3_0p'
p21
I34
sS'cuHPh1x3_0p_cuHPh2x3_0p_cuHPh3x1_0p_cuHPh3x2_0p_cuHPh3x3_1p_cuHAbs1x3_0p_cuHAbs2x3_1p_cuHAbs3x1_0p_cuHAbs3x2_0p_cuHAbs3x3_0p'
p22
I47
sS'cuHPh1x3_0p_cuHPh2x3_0p_cuHPh3x1_1p_cuHPh3x2_0p_cuHPh3x3_0p_cuHAbs1x3_0p_cuHAbs2x3_0p_cuHAbs3x1_0p_cuHAbs3x2_0p_cuHAbs3x3_0p'
p23
I3
sS'cuHPh1x3_0p_cuHPh2x3_1p_cuHPh3x1_0p_cuHPh3x2_0p_cuHPh3x3_0p_cuHAbs1x3_0p_cuHAbs2x3_0p_cuHAbs3x1_0p_cuHAbs3x2_0p_cuHAbs3x3_1p'
p24
I29
sS'cuHPh1x3_0p_cuHPh2x3_0p_cuHPh3x1_0p_cuHPh3x2_0p_cuHPh3x3_0p_cuHAbs1x3_0p_cuHAbs2x3_1p_cuHAbs3x1_0p_cuHAbs3x2_0p_cuHAbs3x3_1p'
p25
I59
sS'cuHPh1x3_0p_cuHPh2x3_0p_cuHPh3x1_0p_cuHPh3x2_2p_cuHPh3x3_0p_cuHAbs1x3_0p_cuHAbs2x3_0p_cuHAbs3x1_0p_cuHAbs3x2_0p_cuHAbs3x3_0p'
p26
I38
sS'cuHPh1x3_0p_cuHPh2x3_0p_cuHPh3x1_0p_cuHPh3x2_0p_cuHPh3x3_0p_cuHAbs1x3_1p_cuHAbs2x3_0p_cuHAbs3x1_0p_cuHAbs3x2_0p_cuHAbs3x3_1p'
p27
I55
sS'cuHPh1x3_0p_cuHPh2x3_0p_cuHPh3x1_0p_cuHPh3x2_0p_cuHPh3x3_1p_cuHAbs1x3_1p_cuHAbs2x3_0p_cuHAbs3x1_0p_cuHAbs3x2_0p_cuHAbs3x3_0p'
p28
I46
sS'cuHPh1x3_0p_cuHPh2x3_0p_cuHPh3x1_2p_cuHPh3x2_0p_cuHPh3x3_0p_cuHAbs1x3_0p_cuHAbs2x3_0p_cuHAbs3x1_0p_cuHAbs3x2_0p_cuHAbs3x3_0p'
p29
I30
sS'cuHPh1x3_0p_cuHPh2x3_0p_cuHPh3x1_0p_cuHPh3x2_0p_cuHPh3x3_0p_cuHAbs1x3_0p_cuHAbs2x3_2p_cuHAbs3x1_0p_cuHAbs3x2_0p_cuHAbs3x3_0p'
p30
I56
sS'cuHPh1x3_1p_cuHPh2x3_0p_cuHPh3x1_1p_cuHPh3x2_0p_cuHPh3x3_0p_cuHAbs1x3_0p_cuHAbs2x3_0p_cuHAbs3x1_0p_cuHAbs3x2_0p_cuHAbs3x3_0p'
p31
I13
sS'cuHPh1x3_0p_cuHPh2x3_0p_cuHPh3x1_0p_cuHPh3x2_0p_cuHPh3x3_2p_cuHAbs1x3_0p_cuHAbs2x3_0p_cuHAbs3x1_0p_cuHAbs3x2_0p_cuHAbs3x3_0p'
p32
I45
sS'cuHPh1x3_0p_cuHPh2x3_0p_cuHPh3x1_0p_cuHPh3x2_0p_cuHPh3x3_0p_cuHAbs1x3_1p_cuHAbs2x3_0p_cuHAbs3x1_1p_cuHAbs3x2_0p_cuHAbs3x3_0p'
p33
I53
sS'cuHPh1x3_1p_cuHPh2x3_0p_cuHPh3x1_0p_cuHPh3x2_0p_cuHPh3x3_0p_cuHAbs1x3_0p_cuHAbs2x3_0p_cuHAbs3x1_0p_cuHAbs3x2_0p_cuHAbs3x3_1p'
p34
I20
sS'cuHPh1x3_0p_cuHPh2x3_0p_cuHPh3x1_0p_cuHPh3x2_1p_cuHPh3x3_1p_cuHAbs1x3_0p_cuHAbs2x3_0p_cuHAbs3x1_0p_cuHAbs3x2_0p_cuHAbs3x3_0p'
p35
I39
sS'cuHPh1x3_0p_cuHPh2x3_0p_cuHPh3x1_1p_cuHPh3x2_1p_cuHPh3x3_0p_cuHAbs1x3_0p_cuHAbs2x3_0p_cuHAbs3x1_0p_cuHAbs3x2_0p_cuHAbs3x3_0p'
p36
I31
sS'cuHPh1x3_0p_cuHPh2x3_0p_cuHPh3x1_0p_cuHPh3x2_0p_cuHPh3x3_0p_cuHAbs1x3_0p_cuHAbs2x3_0p_cuHAbs3x1_1p_cuHAbs3x2_0p_cuHAbs3x3_1p'
p37
I62
sS'cuHPh1x3_0p_cuHPh2x3_0p_cuHPh3x1_0p_cuHPh3x2_0p_cuHPh3x3_0p_cuHAbs1x3_0p_cuHAbs2x3_1p_cuHAbs3x1_1p_cuHAbs3x2_0p_cuHAbs3x3_0p'
p38
I57
sS'cuHPh1x3_0p_cuHPh2x3_0p_cuHPh3x1_1p_cuHPh3x2_0p_cuHPh3x3_0p_cuHAbs1x3_1p_cuHAbs2x3_0p_cuHAbs3x1_0p_cuHAbs3x2_0p_cuHAbs3x3_0p'
p39
I33
sS'cuHPh1x3_0p_cuHPh2x3_0p_cuHPh3x1_0p_cuHPh3x2_0p_cuHPh3x3_0p_cuHAbs1x3_2p_cuHAbs2x3_0p_cuHAbs3x1_0p_cuHAbs3x2_0p_cuHAbs3x3_0p'
p40
I51
sS'cuHPh1x3_0p_cuHPh2x3_0p_cuHPh3x1_0p_cuHPh3x2_1p_cuHPh3x3_0p_cuHAbs1x3_0p_cuHAbs2x3_0p_cuHAbs3x1_0p_cuHAbs3x2_0p_cuHAbs3x3_0p'
p41
I4
sS'cuHPh1x3_0p_cuHPh2x3_0p_cuHPh3x1_1p_cuHPh3x2_0p_cuHPh3x3_1p_cuHAbs1x3_0p_cuHAbs2x3_0p_cuHAbs3x1_0p_cuHAbs3x2_0p_cuHAbs3x3_0p'
p42
I32
sS'cuHPh1x3_0p_cuHPh2x3_1p_cuHPh3x1_0p_cuHPh3x2_0p_cuHPh3x3_1p_cuHAbs1x3_0p_cuHAbs2x3_0p_cuHAbs3x1_0p_cuHAbs3x2_0p_cuHAbs3x3_0p'
p43
I24
sS'cuHPh1x3_0p_cuHPh2x3_0p_cuHPh3x1_1p_cuHPh3x2_0p_cuHPh3x3_0p_cuHAbs1x3_0p_cuHAbs2x3_0p_cuHAbs3x1_0p_cuHAbs3x2_1p_cuHAbs3x3_0p'
p44
I36
sS'cuHPh1x3_0p_cuHPh2x3_0p_cuHPh3x1_0p_cuHPh3x2_0p_cuHPh3x3_0p_cuHAbs1x3_1p_cuHAbs2x3_0p_cuHAbs3x1_0p_cuHAbs3x2_0p_cuHAbs3x3_0p'
p45
I6
sS'cuHPh1x3_0p_cuHPh2x3_0p_cuHPh3x1_1p_cuHPh3x2_0p_cuHPh3x3_0p_cuHAbs1x3_0p_cuHAbs2x3_0p_cuHAbs3x1_0p_cuHAbs3x2_0p_cuHAbs3x3_1p'
p46
I37
sS'cuHPh1x3_0p_cuHPh2x3_0p_cuHPh3x1_0p_cuHPh3x2_0p_cuHPh3x3_0p_cuHAbs1x3_1p_cuHAbs2x3_1p_cuHAbs3x1_0p_cuHAbs3x2_0p_cuHAbs3x3_0p'
p47
I52
sS'cuHPh1x3_0p_cuHPh2x3_1p_cuHPh3x1_0p_cuHPh3x2_0p_cuHPh3x3_0p_cuHAbs1x3_0p_cuHAbs2x3_0p_cuHAbs3x1_0p_cuHAbs3x2_0p_cuHAbs3x3_0p'
p48
I2
sS'cuHPh1x3_0p_cuHPh2x3_0p_cuHPh3x1_0p_cuHPh3x2_0p_cuHPh3x3_1p_cuHAbs1x3_0p_cuHAbs2x3_0p_cuHAbs3x1_0p_cuHAbs3x2_1p_cuHAbs3x3_0p'
p49
I49
sS'cuHPh1x3_0p_cuHPh2x3_0p_cuHPh3x1_0p_cuHPh3x2_0p_cuHPh3x3_0p_cuHAbs1x3_0p_cuHAbs2x3_0p_cuHAbs3x1_1p_cuHAbs3x2_0p_cuHAbs3x3_0p'
p50
I8
sS'cuHPh1x3_0p_cuHPh2x3_0p_cuHPh3x1_0p_cuHPh3x2_0p_cuHPh3x3_0p_cuHAbs1x3_1p_cuHAbs2x3_0p_cuHAbs3x1_0p_cuHAbs3x2_1p_cuHAbs3x3_0p'
p51
I54
sS'cuHPh1x3_0p_cuHPh2x3_0p_cuHPh3x1_0p_cuHPh3x2_0p_cuHPh3x3_1p_cuHAbs1x3_0p_cuHAbs2x3_0p_cuHAbs3x1_0p_cuHAbs3x2_0p_cuHAbs3x3_1p'
p52
I50
sS'cuHPh1x3_0p_cuHPh2x3_0p_cuHPh3x1_0p_cuHPh3x2_0p_cuHPh3x3_0p_cuHAbs1x3_0p_cuHAbs2x3_0p_cuHAbs3x1_0p_cuHAbs3x2_0p_cuHAbs3x3_0p'
p53
I0
sS'cuHPh1x3_0p_cuHPh2x3_0p_cuHPh3x1_0p_cuHPh3x2_1p_cuHPh3x3_0p_cuHAbs1x3_0p_cuHAbs2x3_1p_cuHAbs3x1_0p_cuHAbs3x2_0p_cuHAbs3x3_0p'
p54
I41
sS'cuHPh1x3_0p_cuHPh2x3_0p_cuHPh3x1_0p_cuHPh3x2_0p_cuHPh3x3_0p_cuHAbs1x3_0p_cuHAbs2x3_1p_cuHAbs3x1_0p_cuHAbs3x2_0p_cuHAbs3x3_0p'
p55
I7
sS'cuHPh1x3_0p_cuHPh2x3_0p_cuHPh3x1_0p_cuHPh3x2_0p_cuHPh3x3_0p_cuHAbs1x3_0p_cuHAbs2x3_0p_cuHAbs3x1_0p_cuHAbs3x2_0p_cuHAbs3x3_2p'
p56
I65
sS'cuHPh1x3_0p_cuHPh2x3_1p_cuHPh3x1_0p_cuHPh3x2_0p_cuHPh3x3_0p_cuHAbs1x3_0p_cuHAbs2x3_0p_cuHAbs3x1_1p_cuHAbs3x2_0p_cuHAbs3x3_0p'
p57
I27
sS'cuHPh1x3_0p_cuHPh2x3_1p_cuHPh3x1_0p_cuHPh3x2_0p_cuHPh3x3_0p_cuHAbs1x3_0p_cuHAbs2x3_0p_cuHAbs3x1_0p_cuHAbs3x2_1p_cuHAbs3x3_0p'
p58
I28
sS'cuHPh1x3_0p_cuHPh2x3_0p_cuHPh3x1_0p_cuHPh3x2_0p_cuHPh3x3_1p_cuHAbs1x3_0p_cuHAbs2x3_0p_cuHAbs3x1_0p_cuHAbs3x2_0p_cuHAbs3x3_0p'
p59
I5
sS'cuHPh1x3_0p_cuHPh2x3_0p_cuHPh3x1_0p_cuHPh3x2_1p_cuHPh3x3_0p_cuHAbs1x3_1p_cuHAbs2x3_0p_cuHAbs3x1_0p_cuHAbs3x2_0p_cuHAbs3x3_0p'
p60
I40
sS'cuHPh1x3_0p_cuHPh2x3_0p_cuHPh3x1_0p_cuHPh3x2_1p_cuHPh3x3_0p_cuHAbs1x3_0p_cuHAbs2x3_0p_cuHAbs3x1_0p_cuHAbs3x2_1p_cuHAbs3x3_0p'
p61
I43
sS'cuHPh1x3_1p_cuHPh2x3_0p_cuHPh3x1_0p_cuHPh3x2_0p_cuHPh3x3_1p_cuHAbs1x3_0p_cuHAbs2x3_0p_cuHAbs3x1_0p_cuHAbs3x2_0p_cuHAbs3x3_0p'
p62
I15
sS'cuHPh1x3_0p_cuHPh2x3_0p_cuHPh3x1_0p_cuHPh3x2_1p_cuHPh3x3_0p_cuHAbs1x3_0p_cuHAbs2x3_0p_cuHAbs3x1_1p_cuHAbs3x2_0p_cuHAbs3x3_0p'
p63
I42
sS'cuHPh1x3_0p_cuHPh2x3_0p_cuHPh3x1_0p_cuHPh3x2_0p_cuHPh3x3_1p_cuHAbs1x3_0p_cuHAbs2x3_0p_cuHAbs3x1_1p_cuHAbs3x2_0p_cuHAbs3x3_0p'
p64
I48
sS'cuHPh1x3_0p_cuHPh2x3_0p_cuHPh3x1_0p_cuHPh3x2_0p_cuHPh3x3_0p_cuHAbs1x3_0p_cuHAbs2x3_0p_cuHAbs3x1_0p_cuHAbs3x2_1p_cuHAbs3x3_0p'
p65
I9
sS'cuHPh1x3_0p_cuHPh2x3_2p_cuHPh3x1_0p_cuHPh3x2_0p_cuHPh3x3_0p_cuHAbs1x3_0p_cuHAbs2x3_0p_cuHAbs3x1_0p_cuHAbs3x2_0p_cuHAbs3x3_0p'
p66
I21
sS'cuHPh1x3_0p_cuHPh2x3_1p_cuHPh3x1_0p_cuHPh3x2_0p_cuHPh3x3_0p_cuHAbs1x3_0p_cuHAbs2x3_1p_cuHAbs3x1_0p_cuHAbs3x2_0p_cuHAbs3x3_0p'
p67
I26
sS'cuHPh1x3_0p_cuHPh2x3_0p_cuHPh3x1_0p_cuHPh3x2_0p_cuHPh3x3_0p_cuHAbs1x3_0p_cuHAbs2x3_0p_cuHAbs3x1_1p_cuHAbs3x2_1p_cuHAbs3x3_0p'
p68
I61
sS'cuHPh1x3_1p_cuHPh2x3_0p_cuHPh3x1_0p_cuHPh3x2_0p_cuHPh3x3_0p_cuHAbs1x3_0p_cuHAbs2x3_0p_cuHAbs3x1_0p_cuHAbs3x2_0p_cuHAbs3x3_0p'
p69
I1
sS'cuHPh1x3_0p_cuHPh2x3_0p_cuHPh3x1_0p_cuHPh3x2_0p_cuHPh3x3_0p_cuHAbs1x3_0p_cuHAbs2x3_0p_cuHAbs3x1_2p_cuHAbs3x2_0p_cuHAbs3x3_0p'
p70
I60
sS'cuHPh1x3_0p_cuHPh2x3_1p_cuHPh3x1_0p_cuHPh3x2_0p_cuHPh3x3_0p_cuHAbs1x3_1p_cuHAbs2x3_0p_cuHAbs3x1_0p_cuHAbs3x2_0p_cuHAbs3x3_0p'
p71
I25
sS'cuHPh1x3_1p_cuHPh2x3_1p_cuHPh3x1_0p_cuHPh3x2_0p_cuHPh3x3_0p_cuHAbs1x3_0p_cuHAbs2x3_0p_cuHAbs3x1_0p_cuHAbs3x2_0p_cuHAbs3x3_0p'
p72
I12
sS'cuHPh1x3_0p_cuHPh2x3_1p_cuHPh3x1_1p_cuHPh3x2_0p_cuHPh3x3_0p_cuHAbs1x3_0p_cuHAbs2x3_0p_cuHAbs3x1_0p_cuHAbs3x2_0p_cuHAbs3x3_0p'
p73
I22
ssS'order'
p74
(dp75
g74
I2
ss.