(dp0
S'ref_point'
p1
(dp2
S'ctZI'
p3
S'4'
p4
sS'ctZ'
p5
g4
ssS'rw_dict'
p6
(dp7
S'cpt_0p_ctp_0p_ctpI_1p_cpQM_0p_cpQ3_1p_ctZ_1p_ctZI_1p'
p8
I289
sS'cpt_3p_ctp_0p_ctpI_1p_cpQM_0p_cpQ3_0p_ctZ_0p_ctZI_0p'
p9
I122
sS'cpt_1p_ctp_2p_ctpI_0p_cpQM_0p_cpQ3_1p_ctZ_0p_ctZI_0p'
p10
I151
sS'cpt_0p_ctp_0p_ctpI_2p_cpQM_0p_cpQ3_0p_ctZ_0p_ctZI_1p'
p11
I89
sS'cpt_1p_ctp_0p_ctpI_0p_cpQM_1p_cpQ3_0p_ctZ_1p_ctZI_0p'
p12
I56
sS'cpt_0p_ctp_0p_ctpI_0p_cpQM_0p_cpQ3_1p_ctZ_1p_ctZI_0p'
p13
I31
sS'cpt_0p_ctp_0p_ctpI_0p_cpQM_1p_cpQ3_1p_ctZ_1p_ctZI_1p'
p14
I309
sS'cpt_1p_ctp_1p_ctpI_1p_cpQM_0p_cpQ3_0p_ctZ_0p_ctZI_1p'
p15
I158
sS'cpt_0p_ctp_1p_ctpI_0p_cpQM_0p_cpQ3_1p_ctZ_1p_ctZI_0p'
p16
I80
sS'cpt_0p_ctp_0p_ctpI_3p_cpQM_1p_cpQ3_0p_ctZ_0p_ctZI_0p'
p17
I261
sS'cpt_0p_ctp_0p_ctpI_0p_cpQM_1p_cpQ3_0p_ctZ_3p_ctZI_0p'
p18
I311
sS'cpt_1p_ctp_1p_ctpI_0p_cpQM_0p_cpQ3_1p_ctZ_0p_ctZI_1p'
p19
I165
sS'cpt_1p_ctp_2p_ctpI_0p_cpQM_0p_cpQ3_0p_ctZ_0p_ctZI_0p'
p20
I43
sS'cpt_0p_ctp_0p_ctpI_1p_cpQM_2p_cpQ3_1p_ctZ_0p_ctZI_0p'
p21
I276
sS'cpt_2p_ctp_0p_ctpI_0p_cpQM_0p_cpQ3_1p_ctZ_0p_ctZI_0p'
p22
I40
sS'cpt_0p_ctp_1p_ctpI_0p_cpQM_0p_cpQ3_1p_ctZ_0p_ctZI_2p'
p23
I255
sS'cpt_1p_ctp_0p_ctpI_2p_cpQM_0p_cpQ3_1p_ctZ_0p_ctZI_0p'
p24
I171
sS'cpt_0p_ctp_1p_ctpI_1p_cpQM_1p_cpQ3_0p_ctZ_0p_ctZI_0p'
p25
I71
sS'cpt_0p_ctp_0p_ctpI_1p_cpQM_1p_cpQ3_1p_ctZ_0p_ctZI_1p'
p26
I281
sS'cpt_0p_ctp_0p_ctpI_0p_cpQM_1p_cpQ3_1p_ctZ_0p_ctZI_0p'
p27
I27
sS'cpt_2p_ctp_1p_ctpI_0p_cpQM_0p_cpQ3_1p_ctZ_0p_ctZI_0p'
p28
I130
sS'cpt_0p_ctp_0p_ctpI_1p_cpQM_0p_cpQ3_1p_ctZ_2p_ctZI_0p'
p29
I288
sS'cpt_0p_ctp_0p_ctpI_1p_cpQM_0p_cpQ3_2p_ctZ_0p_ctZI_1p'
p30
I287
sS'cpt_0p_ctp_0p_ctpI_0p_cpQM_2p_cpQ3_1p_ctZ_0p_ctZI_1p'
p31
I301
sS'cpt_3p_ctp_0p_ctpI_0p_cpQM_0p_cpQ3_0p_ctZ_0p_ctZI_1p'
p32
I126
sS'cpt_3p_ctp_1p_ctpI_0p_cpQM_0p_cpQ3_0p_ctZ_0p_ctZI_0p'
p33
I121
sS'cpt_0p_ctp_0p_ctpI_1p_cpQM_1p_cpQ3_2p_ctZ_0p_ctZI_0p'
p34
I279
sS'cpt_0p_ctp_0p_ctpI_2p_cpQM_0p_cpQ3_1p_ctZ_1p_ctZI_0p'
p35
I270
sS'cpt_0p_ctp_2p_ctpI_0p_cpQM_1p_cpQ3_0p_ctZ_1p_ctZI_0p'
p36
I217
sS'cpt_1p_ctp_0p_ctpI_0p_cpQM_0p_cpQ3_0p_ctZ_0p_ctZI_2p'
p37
I63
sS'cpt_0p_ctp_0p_ctpI_0p_cpQM_1p_cpQ3_0p_ctZ_2p_ctZI_0p'
p38
I107
sS'cpt_0p_ctp_1p_ctpI_0p_cpQM_0p_cpQ3_2p_ctZ_1p_ctZI_0p'
p39
I251
sS'cpt_0p_ctp_0p_ctpI_0p_cpQM_0p_cpQ3_1p_ctZ_2p_ctZI_0p'
p40
I113
sS'cpt_0p_ctp_2p_ctpI_2p_cpQM_0p_cpQ3_0p_ctZ_0p_ctZI_0p'
p41
I210
sS'cpt_1p_ctp_0p_ctpI_0p_cpQM_2p_cpQ3_0p_ctZ_0p_ctZI_0p'
p42
I54
sS'cpt_0p_ctp_0p_ctpI_0p_cpQM_0p_cpQ3_2p_ctZ_1p_ctZI_1p'
p43
I319
sS'cpt_0p_ctp_0p_ctpI_0p_cpQM_1p_cpQ3_0p_ctZ_0p_ctZI_2p'
p44
I109
sS'cpt_3p_ctp_0p_ctpI_0p_cpQM_0p_cpQ3_0p_ctZ_1p_ctZI_0p'
p45
I125
sS'cpt_0p_ctp_0p_ctpI_0p_cpQM_0p_cpQ3_0p_ctZ_1p_ctZI_0p'
p46
I6
sS'cpt_0p_ctp_0p_ctpI_2p_cpQM_0p_cpQ3_0p_ctZ_1p_ctZI_0p'
p47
I88
sS'cpt_0p_ctp_1p_ctpI_0p_cpQM_1p_cpQ3_0p_ctZ_1p_ctZI_0p'
p48
I77
sS'cpt_2p_ctp_0p_ctpI_2p_cpQM_0p_cpQ3_0p_ctZ_0p_ctZI_0p'
p49
I133
sS'cpt_1p_ctp_0p_ctpI_0p_cpQM_1p_cpQ3_0p_ctZ_1p_ctZI_1p'
p50
I192
sS'cpt_0p_ctp_0p_ctpI_0p_cpQM_0p_cpQ3_0p_ctZ_1p_ctZI_3p'
p51
I328
sS'cpt_1p_ctp_0p_ctpI_0p_cpQM_0p_cpQ3_2p_ctZ_0p_ctZI_0p'
p52
I58
sS'cpt_0p_ctp_0p_ctpI_0p_cpQM_1p_cpQ3_3p_ctZ_0p_ctZI_0p'
p53
I305
sS'cpt_1p_ctp_0p_ctpI_0p_cpQM_0p_cpQ3_1p_ctZ_0p_ctZI_2p'
p54
I199
sS'cpt_0p_ctp_0p_ctpI_1p_cpQM_1p_cpQ3_0p_ctZ_2p_ctZI_0p'
p55
I282
sS'cpt_0p_ctp_0p_ctpI_2p_cpQM_1p_cpQ3_0p_ctZ_1p_ctZI_0p'
p56
I267
sS'cpt_0p_ctp_3p_ctpI_1p_cpQM_0p_cpQ3_0p_ctZ_0p_ctZI_0p'
p57
I205
sS'cpt_0p_ctp_0p_ctpI_0p_cpQM_2p_cpQ3_0p_ctZ_0p_ctZI_2p'
p58
I304
sS'cpt_1p_ctp_2p_ctpI_0p_cpQM_0p_cpQ3_0p_ctZ_0p_ctZI_1p'
p59
I153
sS'cpt_0p_ctp_1p_ctpI_1p_cpQM_0p_cpQ3_0p_ctZ_1p_ctZI_1p'
p60
I238
sS'cpt_0p_ctp_1p_ctpI_0p_cpQM_0p_cpQ3_1p_ctZ_1p_ctZI_1p'
p61
I254
sS'cpt_0p_ctp_1p_ctpI_0p_cpQM_2p_cpQ3_0p_ctZ_0p_ctZI_0p'
p62
I75
sS'cpt_0p_ctp_1p_ctpI_0p_cpQM_1p_cpQ3_2p_ctZ_0p_ctZI_0p'
p63
I244
sS'cpt_0p_ctp_0p_ctpI_1p_cpQM_0p_cpQ3_0p_ctZ_0p_ctZI_2p'
p64
I99
sS'cpt_0p_ctp_2p_ctpI_0p_cpQM_0p_cpQ3_0p_ctZ_0p_ctZI_2p'
p65
I224
sS'cpt_0p_ctp_1p_ctpI_1p_cpQM_1p_cpQ3_0p_ctZ_0p_ctZI_1p'
p66
I233
sS'cpt_2p_ctp_0p_ctpI_0p_cpQM_0p_cpQ3_1p_ctZ_0p_ctZI_1p'
p67
I144
sS'cpt_2p_ctp_1p_ctpI_0p_cpQM_0p_cpQ3_0p_ctZ_0p_ctZI_0p'
p68
I37
sS'cpt_2p_ctp_0p_ctpI_0p_cpQM_0p_cpQ3_0p_ctZ_0p_ctZI_1p'
p69
I42
sS'cpt_0p_ctp_3p_ctpI_0p_cpQM_0p_cpQ3_1p_ctZ_0p_ctZI_0p'
p70
I207
sS'cpt_1p_ctp_1p_ctpI_0p_cpQM_0p_cpQ3_0p_ctZ_0p_ctZI_2p'
p71
I168
sS'cpt_2p_ctp_0p_ctpI_0p_cpQM_0p_cpQ3_0p_ctZ_2p_ctZI_0p'
p72
I145
sS'cpt_0p_ctp_0p_ctpI_1p_cpQM_1p_cpQ3_0p_ctZ_0p_ctZI_1p'
p73
I93
sS'cpt_0p_ctp_0p_ctpI_1p_cpQM_0p_cpQ3_0p_ctZ_3p_ctZI_0p'
p74
I291
sS'cpt_0p_ctp_0p_ctpI_0p_cpQM_1p_cpQ3_2p_ctZ_0p_ctZI_0p'
p75
I104
sS'cpt_0p_ctp_0p_ctpI_0p_cpQM_1p_cpQ3_0p_ctZ_2p_ctZI_1p'
p76
I312
sS'cpt_0p_ctp_0p_ctpI_0p_cpQM_1p_cpQ3_1p_ctZ_0p_ctZI_1p'
p77
I106
sS'cpt_0p_ctp_1p_ctpI_2p_cpQM_0p_cpQ3_1p_ctZ_0p_ctZI_0p'
p78
I227
sS'cpt_1p_ctp_1p_ctpI_1p_cpQM_0p_cpQ3_0p_ctZ_1p_ctZI_0p'
p79
I157
sS'cpt_1p_ctp_0p_ctpI_0p_cpQM_0p_cpQ3_1p_ctZ_1p_ctZI_0p'
p80
I59
sS'cpt_1p_ctp_0p_ctpI_0p_cpQM_0p_cpQ3_0p_ctZ_0p_ctZI_3p'
p81
I203
sS'cpt_0p_ctp_0p_ctpI_0p_cpQM_1p_cpQ3_2p_ctZ_0p_ctZI_1p'
p82
I307
sS'cpt_0p_ctp_0p_ctpI_0p_cpQM_1p_cpQ3_0p_ctZ_0p_ctZI_3p'
p83
I314
sS'cpt_0p_ctp_0p_ctpI_0p_cpQM_0p_cpQ3_2p_ctZ_2p_ctZI_0p'
p84
I318
sS'cpt_1p_ctp_0p_ctpI_3p_cpQM_0p_cpQ3_0p_ctZ_0p_ctZI_0p'
p85
I169
sS'cpt_0p_ctp_0p_ctpI_0p_cpQM_0p_cpQ3_2p_ctZ_0p_ctZI_1p'
p86
I112
sS'cpt_0p_ctp_1p_ctpI_0p_cpQM_0p_cpQ3_0p_ctZ_0p_ctZI_1p'
p87
I20
sS'cpt_0p_ctp_2p_ctpI_1p_cpQM_0p_cpQ3_1p_ctZ_0p_ctZI_0p'
p88
I212
sS'cpt_0p_ctp_0p_ctpI_3p_cpQM_0p_cpQ3_0p_ctZ_0p_ctZI_0p'
p89
I85
sS'cpt_2p_ctp_2p_ctpI_0p_cpQM_0p_cpQ3_0p_ctZ_0p_ctZI_0p'
p90
I127
sS'cpt_1p_ctp_0p_ctpI_1p_cpQM_0p_cpQ3_1p_ctZ_0p_ctZI_0p'
p91
I51
sS'cpt_2p_ctp_0p_ctpI_0p_cpQM_1p_cpQ3_0p_ctZ_0p_ctZI_1p'
p92
I141
sS'cpt_0p_ctp_0p_ctpI_0p_cpQM_2p_cpQ3_0p_ctZ_0p_ctZI_1p'
p93
I103
sS'cpt_1p_ctp_1p_ctpI_0p_cpQM_0p_cpQ3_0p_ctZ_1p_ctZI_1p'
p94
I167
sS'cpt_0p_ctp_3p_ctpI_0p_cpQM_0p_cpQ3_0p_ctZ_1p_ctZI_0p'
p95
I208
sS'cpt_0p_ctp_1p_ctpI_0p_cpQM_0p_cpQ3_0p_ctZ_0p_ctZI_3p'
p96
I259
sS'cpt_0p_ctp_0p_ctpI_1p_cpQM_0p_cpQ3_1p_ctZ_0p_ctZI_2p'
p97
I290
sS'cpt_0p_ctp_0p_ctpI_0p_cpQM_1p_cpQ3_0p_ctZ_1p_ctZI_0p'
p98
I28
sS'cpt_1p_ctp_1p_ctpI_0p_cpQM_0p_cpQ3_0p_ctZ_2p_ctZI_0p'
p99
I166
sS'cpt_1p_ctp_0p_ctpI_1p_cpQM_1p_cpQ3_0p_ctZ_0p_ctZI_1p'
p100
I177
sS'cpt_0p_ctp_0p_ctpI_0p_cpQM_0p_cpQ3_0p_ctZ_0p_ctZI_2p'
p101
I35
sS'cpt_0p_ctp_0p_ctpI_1p_cpQM_0p_cpQ3_0p_ctZ_1p_ctZI_1p'
p102
I98
sS'cpt_1p_ctp_0p_ctpI_2p_cpQM_0p_cpQ3_0p_ctZ_0p_ctZI_0p'
p103
I49
sS'cpt_1p_ctp_1p_ctpI_1p_cpQM_0p_cpQ3_1p_ctZ_0p_ctZI_0p'
p104
I156
sS'cpt_2p_ctp_0p_ctpI_1p_cpQM_0p_cpQ3_0p_ctZ_0p_ctZI_0p'
p105
I38
sS'cpt_0p_ctp_2p_ctpI_0p_cpQM_0p_cpQ3_0p_ctZ_2p_ctZI_0p'
p106
I222
sS'cpt_0p_ctp_0p_ctpI_0p_cpQM_0p_cpQ3_2p_ctZ_1p_ctZI_0p'
p107
I111
sS'cpt_0p_ctp_1p_ctpI_1p_cpQM_0p_cpQ3_1p_ctZ_1p_ctZI_0p'
p108
I235
sS'cpt_1p_ctp_0p_ctpI_1p_cpQM_0p_cpQ3_0p_ctZ_2p_ctZI_0p'
p109
I181
sS'cpt_1p_ctp_0p_ctpI_0p_cpQM_2p_cpQ3_1p_ctZ_0p_ctZI_0p'
p110
I185
sS'cpt_1p_ctp_0p_ctpI_0p_cpQM_3p_cpQ3_0p_ctZ_0p_ctZI_0p'
p111
I184
sS'cpt_0p_ctp_1p_ctpI_0p_cpQM_0p_cpQ3_1p_ctZ_0p_ctZI_0p'
p112
I18
sS'cpt_0p_ctp_2p_ctpI_0p_cpQM_0p_cpQ3_0p_ctZ_0p_ctZI_0p'
p113
I15
sS'cpt_1p_ctp_1p_ctpI_0p_cpQM_1p_cpQ3_0p_ctZ_0p_ctZI_1p'
p114
I162
sS'cpt_3p_ctp_0p_ctpI_0p_cpQM_0p_cpQ3_0p_ctZ_0p_ctZI_0p'
p115
I36
sS'cpt_1p_ctp_0p_ctpI_0p_cpQM_2p_cpQ3_0p_ctZ_1p_ctZI_0p'
p116
I186
sS'cpt_0p_ctp_1p_ctpI_0p_cpQM_2p_cpQ3_0p_ctZ_0p_ctZI_1p'
p117
I243
sS'cpt_2p_ctp_0p_ctpI_0p_cpQM_0p_cpQ3_1p_ctZ_1p_ctZI_0p'
p118
I143
sS'cpt_0p_ctp_0p_ctpI_2p_cpQM_1p_cpQ3_1p_ctZ_0p_ctZI_0p'
p119
I266
sS'cpt_0p_ctp_0p_ctpI_0p_cpQM_1p_cpQ3_1p_ctZ_2p_ctZI_0p'
p120
I308
sS'cpt_0p_ctp_0p_ctpI_0p_cpQM_2p_cpQ3_0p_ctZ_0p_ctZI_0p'
p121
I26
sS'cpt_0p_ctp_0p_ctpI_1p_cpQM_0p_cpQ3_1p_ctZ_1p_ctZI_0p'
p122
I95
sS'cpt_0p_ctp_2p_ctpI_0p_cpQM_0p_cpQ3_1p_ctZ_0p_ctZI_1p'
p123
I221
sS'cpt_0p_ctp_0p_ctpI_0p_cpQM_0p_cpQ3_1p_ctZ_3p_ctZI_0p'
p124
I321
sS'cpt_0p_ctp_0p_ctpI_1p_cpQM_0p_cpQ3_0p_ctZ_1p_ctZI_2p'
p125
I293
sS'cpt_0p_ctp_2p_ctpI_0p_cpQM_1p_cpQ3_0p_ctZ_0p_ctZI_1p'
p126
I218
sS'cpt_0p_ctp_1p_ctpI_1p_cpQM_0p_cpQ3_1p_ctZ_0p_ctZI_1p'
p127
I236
sS'cpt_0p_ctp_3p_ctpI_0p_cpQM_0p_cpQ3_0p_ctZ_0p_ctZI_1p'
p128
I209
sS'cpt_1p_ctp_0p_ctpI_1p_cpQM_0p_cpQ3_0p_ctZ_1p_ctZI_1p'
p129
I182
sS'cpt_0p_ctp_0p_ctpI_0p_cpQM_3p_cpQ3_0p_ctZ_0p_ctZI_0p'
p130
I100
sS'cpt_0p_ctp_1p_ctpI_1p_cpQM_0p_cpQ3_0p_ctZ_1p_ctZI_0p'
p131
I73
sS'cpt_1p_ctp_0p_ctpI_0p_cpQM_0p_cpQ3_0p_ctZ_0p_ctZI_0p'
p132
I1
sS'cpt_0p_ctp_1p_ctpI_0p_cpQM_2p_cpQ3_1p_ctZ_0p_ctZI_0p'
p133
I241
sS'cpt_0p_ctp_1p_ctpI_1p_cpQM_0p_cpQ3_2p_ctZ_0p_ctZI_0p'
p134
I234
sS'cpt_0p_ctp_0p_ctpI_1p_cpQM_1p_cpQ3_0p_ctZ_1p_ctZI_0p'
p135
I92
sS'cpt_0p_ctp_2p_ctpI_1p_cpQM_1p_cpQ3_0p_ctZ_0p_ctZI_0p'
p136
I211
sS'cpt_0p_ctp_0p_ctpI_0p_cpQM_3p_cpQ3_0p_ctZ_0p_ctZI_1p'
p137
I298
sS'cpt_0p_ctp_4p_ctpI_0p_cpQM_0p_cpQ3_0p_ctZ_0p_ctZI_0p'
p138
I204
sS'cpt_1p_ctp_0p_ctpI_1p_cpQM_0p_cpQ3_1p_ctZ_0p_ctZI_1p'
p139
I180
sS'cpt_0p_ctp_0p_ctpI_1p_cpQM_1p_cpQ3_0p_ctZ_0p_ctZI_2p'
p140
I284
sS'cpt_1p_ctp_1p_ctpI_1p_cpQM_0p_cpQ3_0p_ctZ_0p_ctZI_0p'
p141
I44
sS'cpt_1p_ctp_1p_ctpI_0p_cpQM_1p_cpQ3_1p_ctZ_0p_ctZI_0p'
p142
I160
sS'cpt_0p_ctp_0p_ctpI_0p_cpQM_0p_cpQ3_3p_ctZ_1p_ctZI_0p'
p143
I316
sS'cpt_0p_ctp_0p_ctpI_0p_cpQM_0p_cpQ3_1p_ctZ_1p_ctZI_1p'
p144
I114
sS'cpt_0p_ctp_1p_ctpI_1p_cpQM_2p_cpQ3_0p_ctZ_0p_ctZI_0p'
p145
I230
sS'cpt_1p_ctp_1p_ctpI_0p_cpQM_0p_cpQ3_1p_ctZ_0p_ctZI_0p'
p146
I46
sS'cpt_0p_ctp_0p_ctpI_0p_cpQM_3p_cpQ3_0p_ctZ_1p_ctZI_0p'
p147
I297
sS'cpt_2p_ctp_0p_ctpI_1p_cpQM_0p_cpQ3_0p_ctZ_0p_ctZI_1p'
p148
I137
sS'cpt_0p_ctp_0p_ctpI_2p_cpQM_1p_cpQ3_0p_ctZ_0p_ctZI_1p'
p149
I268
sS'cpt_0p_ctp_1p_ctpI_0p_cpQM_1p_cpQ3_0p_ctZ_2p_ctZI_0p'
p150
I247
sS'cpt_0p_ctp_0p_ctpI_2p_cpQM_0p_cpQ3_0p_ctZ_2p_ctZI_0p'
p151
I272
sS'cpt_0p_ctp_0p_ctpI_0p_cpQM_3p_cpQ3_1p_ctZ_0p_ctZI_0p'
p152
I296
sS'cpt_0p_ctp_0p_ctpI_0p_cpQM_2p_cpQ3_1p_ctZ_0p_ctZI_0p'
p153
I101
sS'cpt_1p_ctp_0p_ctpI_0p_cpQM_1p_cpQ3_0p_ctZ_2p_ctZI_0p'
p154
I191
sS'cpt_2p_ctp_0p_ctpI_1p_cpQM_1p_cpQ3_0p_ctZ_0p_ctZI_0p'
p155
I134
sS'cpt_1p_ctp_0p_ctpI_0p_cpQM_0p_cpQ3_3p_ctZ_0p_ctZI_0p'
p156
I194
sS'cpt_0p_ctp_0p_ctpI_1p_cpQM_1p_cpQ3_1p_ctZ_0p_ctZI_0p'
p157
I91
sS'cpt_0p_ctp_0p_ctpI_1p_cpQM_0p_cpQ3_3p_ctZ_0p_ctZI_0p'
p158
I285
sS'cpt_0p_ctp_0p_ctpI_2p_cpQM_0p_cpQ3_1p_ctZ_0p_ctZI_1p'
p159
I271
sS'cpt_0p_ctp_0p_ctpI_3p_cpQM_0p_cpQ3_0p_ctZ_1p_ctZI_0p'
p160
I263
sS'cpt_0p_ctp_0p_ctpI_0p_cpQM_2p_cpQ3_2p_ctZ_0p_ctZI_0p'
p161
I299
sS'cpt_0p_ctp_2p_ctpI_0p_cpQM_2p_cpQ3_0p_ctZ_0p_ctZI_0p'
p162
I215
sS'cpt_0p_ctp_1p_ctpI_0p_cpQM_1p_cpQ3_1p_ctZ_0p_ctZI_0p'
p163
I76
sS'cpt_0p_ctp_1p_ctpI_1p_cpQM_1p_cpQ3_0p_ctZ_1p_ctZI_0p'
p164
I232
sS'cpt_0p_ctp_0p_ctpI_0p_cpQM_2p_cpQ3_0p_ctZ_1p_ctZI_1p'
p165
I303
sS'cpt_0p_ctp_0p_ctpI_1p_cpQM_1p_cpQ3_0p_ctZ_1p_ctZI_1p'
p166
I283
sS'cpt_0p_ctp_0p_ctpI_1p_cpQM_0p_cpQ3_0p_ctZ_1p_ctZI_0p'
p167
I24
sS'cpt_0p_ctp_0p_ctpI_1p_cpQM_0p_cpQ3_2p_ctZ_0p_ctZI_0p'
p168
I94
sS'cpt_1p_ctp_0p_ctpI_0p_cpQM_1p_cpQ3_1p_ctZ_0p_ctZI_1p'
p169
I190
sS'cpt_1p_ctp_0p_ctpI_1p_cpQM_1p_cpQ3_1p_ctZ_0p_ctZI_0p'
p170
I175
sS'cpt_0p_ctp_0p_ctpI_0p_cpQM_2p_cpQ3_1p_ctZ_1p_ctZI_0p'
p171
I300
sS'cpt_1p_ctp_0p_ctpI_0p_cpQM_0p_cpQ3_0p_ctZ_0p_ctZI_1p'
p172
I14
sS'cpt_0p_ctp_1p_ctpI_0p_cpQM_0p_cpQ3_1p_ctZ_2p_ctZI_0p'
p173
I253
sS'cpt_1p_ctp_0p_ctpI_2p_cpQM_1p_cpQ3_0p_ctZ_0p_ctZI_0p'
p174
I170
sS'cpt_2p_ctp_0p_ctpI_0p_cpQM_1p_cpQ3_0p_ctZ_1p_ctZI_0p'
p175
I140
sS'cpt_1p_ctp_0p_ctpI_0p_cpQM_0p_cpQ3_1p_ctZ_2p_ctZI_0p'
p176
I197
sS'cpt_0p_ctp_0p_ctpI_0p_cpQM_0p_cpQ3_4p_ctZ_0p_ctZI_0p'
p177
I315
sS'cpt_0p_ctp_0p_ctpI_2p_cpQM_0p_cpQ3_0p_ctZ_0p_ctZI_0p'
p178
I21
sS'cpt_0p_ctp_0p_ctpI_0p_cpQM_0p_cpQ3_0p_ctZ_0p_ctZI_0p'
p179
I0
sS'cpt_1p_ctp_0p_ctpI_1p_cpQM_0p_cpQ3_0p_ctZ_0p_ctZI_1p'
p180
I53
sS'cpt_2p_ctp_0p_ctpI_0p_cpQM_0p_cpQ3_0p_ctZ_1p_ctZI_1p'
p181
I146
sS'cpt_0p_ctp_0p_ctpI_0p_cpQM_0p_cpQ3_3p_ctZ_0p_ctZI_0p'
p182
I110
sS'cpt_0p_ctp_0p_ctpI_1p_cpQM_0p_cpQ3_0p_ctZ_0p_ctZI_1p'
p183
I25
sS'cpt_0p_ctp_0p_ctpI_1p_cpQM_2p_cpQ3_0p_ctZ_0p_ctZI_0p'
p184
I90
sS'cpt_0p_ctp_1p_ctpI_1p_cpQM_0p_cpQ3_0p_ctZ_0p_ctZI_0p'
p185
I16
sS'cpt_0p_ctp_0p_ctpI_0p_cpQM_0p_cpQ3_0p_ctZ_2p_ctZI_0p'
p186
I33
sS'cpt_2p_ctp_0p_ctpI_0p_cpQM_0p_cpQ3_0p_ctZ_0p_ctZI_2p'
p187
I147
sS'cpt_1p_ctp_3p_ctpI_0p_cpQM_0p_cpQ3_0p_ctZ_0p_ctZI_0p'
p188
I148
sS'cpt_0p_ctp_1p_ctpI_0p_cpQM_0p_cpQ3_3p_ctZ_0p_ctZI_0p'
p189
I250
sS'cpt_2p_ctp_0p_ctpI_1p_cpQM_0p_cpQ3_0p_ctZ_1p_ctZI_0p'
p190
I136
sS'cpt_0p_ctp_1p_ctpI_0p_cpQM_0p_cpQ3_0p_ctZ_1p_ctZI_0p'
p191
I19
sS'cpt_1p_ctp_0p_ctpI_0p_cpQM_0p_cpQ3_2p_ctZ_0p_ctZI_1p'
p192
I196
sS'cpt_1p_ctp_2p_ctpI_1p_cpQM_0p_cpQ3_0p_ctZ_0p_ctZI_0p'
p193
I149
sS'cpt_1p_ctp_0p_ctpI_0p_cpQM_1p_cpQ3_1p_ctZ_1p_ctZI_0p'
p194
I189
sS'cpt_0p_ctp_2p_ctpI_1p_cpQM_0p_cpQ3_0p_ctZ_0p_ctZI_1p'
p195
I214
sS'cpt_0p_ctp_1p_ctpI_1p_cpQM_0p_cpQ3_0p_ctZ_2p_ctZI_0p'
p196
I237
sS'cpt_2p_ctp_0p_ctpI_0p_cpQM_0p_cpQ3_2p_ctZ_0p_ctZI_0p'
p197
I142
sS'cpt_1p_ctp_0p_ctpI_0p_cpQM_0p_cpQ3_0p_ctZ_2p_ctZI_1p'
p198
I201
sS'cpt_1p_ctp_0p_ctpI_1p_cpQM_2p_cpQ3_0p_ctZ_0p_ctZI_0p'
p199
I174
sS'cpt_0p_ctp_0p_ctpI_0p_cpQM_0p_cpQ3_1p_ctZ_2p_ctZI_1p'
p200
I322
sS'cpt_1p_ctp_0p_ctpI_0p_cpQM_1p_cpQ3_0p_ctZ_0p_ctZI_0p'
p201
I11
sS'cpt_2p_ctp_1p_ctpI_0p_cpQM_1p_cpQ3_0p_ctZ_0p_ctZI_0p'
p202
I129
sS'cpt_0p_ctp_0p_ctpI_2p_cpQM_0p_cpQ3_2p_ctZ_0p_ctZI_0p'
p203
I269
sS'cpt_0p_ctp_0p_ctpI_0p_cpQM_1p_cpQ3_2p_ctZ_1p_ctZI_0p'
p204
I306
sS'cpt_1p_ctp_0p_ctpI_0p_cpQM_0p_cpQ3_2p_ctZ_1p_ctZI_0p'
p205
I195
sS'cpt_0p_ctp_0p_ctpI_4p_cpQM_0p_cpQ3_0p_ctZ_0p_ctZI_0p'
p206
I260
sS'cpt_1p_ctp_0p_ctpI_0p_cpQM_2p_cpQ3_0p_ctZ_0p_ctZI_1p'
p207
I187
sS'cpt_0p_ctp_1p_ctpI_2p_cpQM_0p_cpQ3_0p_ctZ_0p_ctZI_1p'
p208
I229
sS'cpt_0p_ctp_0p_ctpI_0p_cpQM_0p_cpQ3_0p_ctZ_1p_ctZI_2p'
p209
I118
sS'cpt_0p_ctp_0p_ctpI_1p_cpQM_0p_cpQ3_1p_ctZ_0p_ctZI_1p'
p210
I96
sS'cpt_0p_ctp_1p_ctpI_2p_cpQM_0p_cpQ3_0p_ctZ_1p_ctZI_0p'
p211
I228
sS'cpt_0p_ctp_0p_ctpI_0p_cpQM_0p_cpQ3_0p_ctZ_3p_ctZI_1p'
p212
I326
sS'cpt_0p_ctp_1p_ctpI_0p_cpQM_0p_cpQ3_0p_ctZ_0p_ctZI_2p'
p213
I84
sS'cpt_0p_ctp_0p_ctpI_0p_cpQM_0p_cpQ3_3p_ctZ_0p_ctZI_1p'
p214
I317
sS'cpt_1p_ctp_0p_ctpI_0p_cpQM_0p_cpQ3_0p_ctZ_1p_ctZI_2p'
p215
I202
sS'cpt_1p_ctp_0p_ctpI_0p_cpQM_1p_cpQ3_1p_ctZ_0p_ctZI_0p'
p216
I55
sS'cpt_0p_ctp_2p_ctpI_1p_cpQM_0p_cpQ3_0p_ctZ_1p_ctZI_0p'
p217
I213
sS'cpt_1p_ctp_1p_ctpI_0p_cpQM_0p_cpQ3_0p_ctZ_1p_ctZI_0p'
p218
I47
sS'cpt_1p_ctp_0p_ctpI_1p_cpQM_0p_cpQ3_0p_ctZ_0p_ctZI_0p'
p219
I10
sS'cpt_1p_ctp_0p_ctpI_0p_cpQM_0p_cpQ3_0p_ctZ_3p_ctZI_0p'
p220
I200
sS'cpt_1p_ctp_0p_ctpI_1p_cpQM_0p_cpQ3_1p_ctZ_1p_ctZI_0p'
p221
I179
sS'cpt_0p_ctp_0p_ctpI_0p_cpQM_1p_cpQ3_0p_ctZ_1p_ctZI_1p'
p222
I108
sS'cpt_2p_ctp_0p_ctpI_0p_cpQM_1p_cpQ3_0p_ctZ_0p_ctZI_0p'
p223
I39
sS'cpt_1p_ctp_0p_ctpI_1p_cpQM_1p_cpQ3_0p_ctZ_1p_ctZI_0p'
p224
I176
sS'cpt_0p_ctp_0p_ctpI_0p_cpQM_0p_cpQ3_0p_ctZ_0p_ctZI_3p'
p225
I119
sS'cpt_0p_ctp_0p_ctpI_0p_cpQM_1p_cpQ3_0p_ctZ_1p_ctZI_2p'
p226
I313
sS'cpt_0p_ctp_1p_ctpI_3p_cpQM_0p_cpQ3_0p_ctZ_0p_ctZI_0p'
p227
I225
sS'cpt_1p_ctp_0p_ctpI_1p_cpQM_1p_cpQ3_0p_ctZ_0p_ctZI_0p'
p228
I50
sS'cpt_0p_ctp_0p_ctpI_1p_cpQM_1p_cpQ3_0p_ctZ_0p_ctZI_0p'
p229
I22
sS'cpt_0p_ctp_0p_ctpI_0p_cpQM_2p_cpQ3_0p_ctZ_1p_ctZI_0p'
p230
I102
sS'cpt_1p_ctp_1p_ctpI_0p_cpQM_0p_cpQ3_1p_ctZ_1p_ctZI_0p'
p231
I164
sS'cpt_0p_ctp_1p_ctpI_0p_cpQM_0p_cpQ3_0p_ctZ_3p_ctZI_0p'
p232
I256
sS'cpt_0p_ctp_2p_ctpI_0p_cpQM_0p_cpQ3_0p_ctZ_0p_ctZI_1p'
p233
I69
sS'cpt_1p_ctp_0p_ctpI_2p_cpQM_0p_cpQ3_0p_ctZ_1p_ctZI_0p'
p234
I172
sS'cpt_2p_ctp_0p_ctpI_0p_cpQM_2p_cpQ3_0p_ctZ_0p_ctZI_0p'
p235
I138
sS'cpt_0p_ctp_1p_ctpI_0p_cpQM_0p_cpQ3_0p_ctZ_0p_ctZI_0p'
p236
I2
sS'cpt_0p_ctp_0p_ctpI_3p_cpQM_0p_cpQ3_1p_ctZ_0p_ctZI_0p'
p237
I262
sS'cpt_0p_ctp_1p_ctpI_0p_cpQM_0p_cpQ3_1p_ctZ_0p_ctZI_1p'
p238
I81
sS'cpt_1p_ctp_2p_ctpI_0p_cpQM_0p_cpQ3_0p_ctZ_1p_ctZI_0p'
p239
I152
sS'cpt_0p_ctp_2p_ctpI_0p_cpQM_1p_cpQ3_0p_ctZ_0p_ctZI_0p'
p240
I66
sS'cpt_1p_ctp_2p_ctpI_0p_cpQM_1p_cpQ3_0p_ctZ_0p_ctZI_0p'
p241
I150
sS'cpt_0p_ctp_0p_ctpI_0p_cpQM_0p_cpQ3_1p_ctZ_0p_ctZI_0p'
p242
I5
sS'cpt_1p_ctp_0p_ctpI_1p_cpQM_0p_cpQ3_2p_ctZ_0p_ctZI_0p'
p243
I178
sS'cpt_0p_ctp_1p_ctpI_0p_cpQM_1p_cpQ3_0p_ctZ_0p_ctZI_2p'
p244
I249
sS'cpt_0p_ctp_0p_ctpI_1p_cpQM_0p_cpQ3_1p_ctZ_0p_ctZI_0p'
p245
I23
sS'cpt_0p_ctp_1p_ctpI_1p_cpQM_0p_cpQ3_1p_ctZ_0p_ctZI_0p'
p246
I72
sS'cpt_0p_ctp_2p_ctpI_0p_cpQM_0p_cpQ3_1p_ctZ_0p_ctZI_0p'
p247
I67
sS'cpt_0p_ctp_0p_ctpI_0p_cpQM_4p_cpQ3_0p_ctZ_0p_ctZI_0p'
p248
I295
sS'cpt_1p_ctp_0p_ctpI_1p_cpQM_0p_cpQ3_0p_ctZ_1p_ctZI_0p'
p249
I52
sS'cpt_0p_ctp_1p_ctpI_2p_cpQM_1p_cpQ3_0p_ctZ_0p_ctZI_0p'
p250
I226
sS'cpt_0p_ctp_1p_ctpI_1p_cpQM_0p_cpQ3_0p_ctZ_0p_ctZI_2p'
p251
I239
sS'cpt_1p_ctp_1p_ctpI_0p_cpQM_2p_cpQ3_0p_ctZ_0p_ctZI_0p'
p252
I159
sS'cpt_1p_ctp_1p_ctpI_1p_cpQM_1p_cpQ3_0p_ctZ_0p_ctZI_0p'
p253
I155
sS'cpt_0p_ctp_3p_ctpI_0p_cpQM_0p_cpQ3_0p_ctZ_0p_ctZI_0p'
p254
I64
sS'cpt_1p_ctp_1p_ctpI_0p_cpQM_0p_cpQ3_2p_ctZ_0p_ctZI_0p'
p255
I163
sS'cpt_0p_ctp_1p_ctpI_0p_cpQM_1p_cpQ3_1p_ctZ_1p_ctZI_0p'
p256
I245
sS'cpt_1p_ctp_0p_ctpI_0p_cpQM_1p_cpQ3_2p_ctZ_0p_ctZI_0p'
p257
I188
sS'cpt_1p_ctp_0p_ctpI_0p_cpQM_0p_cpQ3_1p_ctZ_0p_ctZI_1p'
p258
I60
sS'cpt_0p_ctp_1p_ctpI_0p_cpQM_1p_cpQ3_1p_ctZ_0p_ctZI_1p'
p259
I246
sS'cpt_0p_ctp_1p_ctpI_2p_cpQM_0p_cpQ3_0p_ctZ_0p_ctZI_0p'
p260
I70
sS'cpt_0p_ctp_0p_ctpI_0p_cpQM_0p_cpQ3_0p_ctZ_1p_ctZI_1p'
p261
I34
sS'cpt_0p_ctp_0p_ctpI_1p_cpQM_2p_cpQ3_0p_ctZ_1p_ctZI_0p'
p262
I277
sS'cpt_0p_ctp_1p_ctpI_0p_cpQM_0p_cpQ3_0p_ctZ_2p_ctZI_0p'
p263
I82
sS'cpt_2p_ctp_0p_ctpI_0p_cpQM_1p_cpQ3_1p_ctZ_0p_ctZI_0p'
p264
I139
sS'cpt_1p_ctp_0p_ctpI_0p_cpQM_0p_cpQ3_0p_ctZ_1p_ctZI_1p'
p265
I62
sS'cpt_4p_ctp_0p_ctpI_0p_cpQM_0p_cpQ3_0p_ctZ_0p_ctZI_0p'
p266
I120
sS'cpt_0p_ctp_0p_ctpI_0p_cpQM_1p_cpQ3_1p_ctZ_0p_ctZI_2p'
p267
I310
sS'cpt_0p_ctp_0p_ctpI_0p_cpQM_0p_cpQ3_0p_ctZ_2p_ctZI_2p'
p268
I327
sS'cpt_0p_ctp_0p_ctpI_1p_cpQM_3p_cpQ3_0p_ctZ_0p_ctZI_0p'
p269
I275
sS'cpt_0p_ctp_0p_ctpI_1p_cpQM_2p_cpQ3_0p_ctZ_0p_ctZI_1p'
p270
I278
sS'cpt_0p_ctp_1p_ctpI_1p_cpQM_1p_cpQ3_1p_ctZ_0p_ctZI_0p'
p271
I231
sS'cpt_2p_ctp_0p_ctpI_1p_cpQM_0p_cpQ3_1p_ctZ_0p_ctZI_0p'
p272
I135
sS'cpt_0p_ctp_1p_ctpI_0p_cpQM_0p_cpQ3_0p_ctZ_1p_ctZI_2p'
p273
I258
sS'cpt_1p_ctp_1p_ctpI_0p_cpQM_0p_cpQ3_0p_ctZ_0p_ctZI_1p'
p274
I48
sS'cpt_0p_ctp_1p_ctpI_0p_cpQM_0p_cpQ3_2p_ctZ_0p_ctZI_0p'
p275
I79
sS'cpt_0p_ctp_0p_ctpI_1p_cpQM_0p_cpQ3_0p_ctZ_0p_ctZI_3p'
p276
I294
sS'cpt_0p_ctp_0p_ctpI_2p_cpQM_0p_cpQ3_1p_ctZ_0p_ctZI_0p'
p277
I87
sS'cpt_2p_ctp_0p_ctpI_0p_cpQM_0p_cpQ3_0p_ctZ_0p_ctZI_0p'
p278
I8
sS'cpt_0p_ctp_0p_ctpI_1p_cpQM_0p_cpQ3_0p_ctZ_2p_ctZI_0p'
p279
I97
sS'cpt_0p_ctp_1p_ctpI_0p_cpQM_0p_cpQ3_0p_ctZ_2p_ctZI_1p'
p280
I257
sS'cpt_0p_ctp_0p_ctpI_0p_cpQM_0p_cpQ3_2p_ctZ_0p_ctZI_2p'
p281
I320
sS'cpt_1p_ctp_1p_ctpI_2p_cpQM_0p_cpQ3_0p_ctZ_0p_ctZI_0p'
p282
I154
sS'cpt_2p_ctp_1p_ctpI_0p_cpQM_0p_cpQ3_0p_ctZ_0p_ctZI_1p'
p283
I132
sS'cpt_0p_ctp_0p_ctpI_0p_cpQM_0p_cpQ3_1p_ctZ_0p_ctZI_2p'
p284
I115
sS'cpt_0p_ctp_0p_ctpI_2p_cpQM_2p_cpQ3_0p_ctZ_0p_ctZI_0p'
p285
I265
sS'cpt_2p_ctp_1p_ctpI_0p_cpQM_0p_cpQ3_0p_ctZ_1p_ctZI_0p'
p286
I131
sS'cpt_1p_ctp_0p_ctpI_0p_cpQM_0p_cpQ3_1p_ctZ_1p_ctZI_1p'
p287
I198
sS'cpt_0p_ctp_2p_ctpI_0p_cpQM_1p_cpQ3_1p_ctZ_0p_ctZI_0p'
p288
I216
sS'cpt_0p_ctp_0p_ctpI_2p_cpQM_0p_cpQ3_0p_ctZ_1p_ctZI_1p'
p289
I273
sS'cpt_0p_ctp_0p_ctpI_3p_cpQM_0p_cpQ3_0p_ctZ_0p_ctZI_1p'
p290
I264
sS'cpt_0p_ctp_0p_ctpI_0p_cpQM_0p_cpQ3_2p_ctZ_0p_ctZI_0p'
p291
I30
sS'cpt_0p_ctp_1p_ctpI_0p_cpQM_2p_cpQ3_0p_ctZ_1p_ctZI_0p'
p292
I242
sS'cpt_0p_ctp_0p_ctpI_0p_cpQM_1p_cpQ3_0p_ctZ_0p_ctZI_0p'
p293
I4
sS'cpt_0p_ctp_1p_ctpI_0p_cpQM_1p_cpQ3_0p_ctZ_0p_ctZI_1p'
p294
I78
sS'cpt_0p_ctp_0p_ctpI_0p_cpQM_0p_cpQ3_1p_ctZ_0p_ctZI_3p'
p295
I324
sS'cpt_0p_ctp_2p_ctpI_0p_cpQM_0p_cpQ3_0p_ctZ_1p_ctZI_0p'
p296
I68
sS'cpt_1p_ctp_1p_ctpI_0p_cpQM_1p_cpQ3_0p_ctZ_1p_ctZI_0p'
p297
I161
sS'cpt_1p_ctp_0p_ctpI_0p_cpQM_0p_cpQ3_1p_ctZ_0p_ctZI_0p'
p298
I12
sS'cpt_0p_ctp_0p_ctpI_0p_cpQM_0p_cpQ3_1p_ctZ_1p_ctZI_2p'
p299
I323
sS'cpt_1p_ctp_0p_ctpI_0p_cpQM_0p_cpQ3_0p_ctZ_1p_ctZI_0p'
p300
I13
sS'cpt_0p_ctp_1p_ctpI_0p_cpQM_3p_cpQ3_0p_ctZ_0p_ctZI_0p'
p301
I240
sS'cpt_0p_ctp_0p_ctpI_0p_cpQM_1p_cpQ3_1p_ctZ_1p_ctZI_0p'
p302
I105
sS'cpt_0p_ctp_0p_ctpI_0p_cpQM_2p_cpQ3_0p_ctZ_2p_ctZI_0p'
p303
I302
sS'cpt_2p_ctp_0p_ctpI_0p_cpQM_0p_cpQ3_0p_ctZ_1p_ctZI_0p'
p304
I41
sS'cpt_0p_ctp_3p_ctpI_0p_cpQM_1p_cpQ3_0p_ctZ_0p_ctZI_0p'
p305
I206
sS'cpt_0p_ctp_0p_ctpI_1p_cpQM_1p_cpQ3_1p_ctZ_1p_ctZI_0p'
p306
I280
sS'cpt_0p_ctp_1p_ctpI_0p_cpQM_0p_cpQ3_2p_ctZ_0p_ctZI_1p'
p307
I252
sS'cpt_0p_ctp_0p_ctpI_1p_cpQM_0p_cpQ3_0p_ctZ_0p_ctZI_0p'
p308
I3
sS'cpt_1p_ctp_0p_ctpI_2p_cpQM_0p_cpQ3_0p_ctZ_0p_ctZI_1p'
p309
I173
sS'cpt_0p_ctp_0p_ctpI_0p_cpQM_0p_cpQ3_0p_ctZ_0p_ctZI_1p'
p310
I7
sS'cpt_1p_ctp_0p_ctpI_1p_cpQM_0p_cpQ3_0p_ctZ_0p_ctZI_2p'
p311
I183
sS'cpt_0p_ctp_0p_ctpI_0p_cpQM_0p_cpQ3_0p_ctZ_2p_ctZI_1p'
p312
I117
sS'cpt_1p_ctp_1p_ctpI_0p_cpQM_0p_cpQ3_0p_ctZ_0p_ctZI_0p'
p313
I9
sS'cpt_0p_ctp_1p_ctpI_1p_cpQM_0p_cpQ3_0p_ctZ_0p_ctZI_1p'
p314
I74
sS'cpt_0p_ctp_0p_ctpI_0p_cpQM_0p_cpQ3_0p_ctZ_4p_ctZI_0p'
p315
I325
sS'cpt_0p_ctp_1p_ctpI_0p_cpQM_0p_cpQ3_0p_ctZ_1p_ctZI_1p'
p316
I83
sS'cpt_3p_ctp_0p_ctpI_0p_cpQM_1p_cpQ3_0p_ctZ_0p_ctZI_0p'
p317
I123
sS'cpt_0p_ctp_0p_ctpI_0p_cpQM_0p_cpQ3_0p_ctZ_0p_ctZI_4p'
p318
I329
sS'cpt_0p_ctp_0p_ctpI_1p_cpQM_0p_cpQ3_2p_ctZ_1p_ctZI_0p'
p319
I286
sS'cpt_1p_ctp_1p_ctpI_0p_cpQM_1p_cpQ3_0p_ctZ_0p_ctZI_0p'
p320
I45
sS'cpt_0p_ctp_0p_ctpI_1p_cpQM_0p_cpQ3_0p_ctZ_2p_ctZI_1p'
p321
I292
sS'cpt_0p_ctp_0p_ctpI_2p_cpQM_1p_cpQ3_0p_ctZ_0p_ctZI_0p'
p322
I86
sS'cpt_1p_ctp_0p_ctpI_0p_cpQM_0p_cpQ3_0p_ctZ_2p_ctZI_0p'
p323
I61
sS'cpt_0p_ctp_2p_ctpI_1p_cpQM_0p_cpQ3_0p_ctZ_0p_ctZI_0p'
p324
I65
sS'cpt_0p_ctp_2p_ctpI_0p_cpQM_0p_cpQ3_1p_ctZ_1p_ctZI_0p'
p325
I220
sS'cpt_1p_ctp_0p_ctpI_0p_cpQM_1p_cpQ3_0p_ctZ_0p_ctZI_1p'
p326
I57
sS'cpt_2p_ctp_1p_ctpI_1p_cpQM_0p_cpQ3_0p_ctZ_0p_ctZI_0p'
p327
I128
sS'cpt_0p_ctp_0p_ctpI_0p_cpQM_0p_cpQ3_1p_ctZ_0p_ctZI_1p'
p328
I32
sS'cpt_0p_ctp_2p_ctpI_0p_cpQM_0p_cpQ3_2p_ctZ_0p_ctZI_0p'
p329
I219
sS'cpt_0p_ctp_0p_ctpI_0p_cpQM_0p_cpQ3_0p_ctZ_3p_ctZI_0p'
p330
I116
sS'cpt_0p_ctp_0p_ctpI_0p_cpQM_1p_cpQ3_0p_ctZ_0p_ctZI_1p'
p331
I29
sS'cpt_3p_ctp_0p_ctpI_0p_cpQM_0p_cpQ3_1p_ctZ_0p_ctZI_0p'
p332
I124
sS'cpt_0p_ctp_2p_ctpI_0p_cpQM_0p_cpQ3_0p_ctZ_1p_ctZI_1p'
p333
I223
sS'cpt_0p_ctp_1p_ctpI_0p_cpQM_1p_cpQ3_0p_ctZ_1p_ctZI_1p'
p334
I248
sS'cpt_1p_ctp_0p_ctpI_0p_cpQM_1p_cpQ3_0p_ctZ_0p_ctZI_2p'
p335
I193
sS'cpt_0p_ctp_1p_ctpI_0p_cpQM_1p_cpQ3_0p_ctZ_0p_ctZI_0p'
p336
I17
sS'cpt_0p_ctp_0p_ctpI_2p_cpQM_0p_cpQ3_0p_ctZ_0p_ctZI_2p'
p337
I274
ssS'order'
p338
(dp339
g338
I4
ss.