(dp0
S'ref_point'
p1
(dp2
sS'rw_dict'
p3
(dp4
S'cpt_0p_ctp_0p_ctpI_0p_cpQM_2p_cpQ3_0p'
p5
I18
sS'cpt_0p_ctp_0p_ctpI_1p_cpQM_0p_cpQ3_2p'
p6
I51
sS'cpt_2p_ctp_0p_ctpI_0p_cpQM_1p_cpQ3_1p'
p7
I69
sS'cpt_2p_ctp_1p_ctpI_1p_cpQM_0p_cpQ3_0p'
p8
I62
sS'cpt_3p_ctp_0p_ctpI_0p_cpQM_0p_cpQ3_0p'
p9
I21
sS'cpt_1p_ctp_0p_ctpI_0p_cpQM_3p_cpQ3_0p'
p10
I87
sS'cpt_0p_ctp_3p_ctpI_0p_cpQM_0p_cpQ3_0p'
p11
I36
sS'cpt_0p_ctp_0p_ctpI_1p_cpQM_3p_cpQ3_0p'
p12
I117
sS'cpt_0p_ctp_2p_ctpI_0p_cpQM_1p_cpQ3_0p'
p13
I38
sS'cpt_1p_ctp_0p_ctpI_0p_cpQM_2p_cpQ3_1p'
p14
I88
sS'cpt_0p_ctp_0p_ctpI_0p_cpQM_4p_cpQ3_0p'
p15
I121
sS'cpt_0p_ctp_0p_ctpI_2p_cpQM_0p_cpQ3_0p'
p16
I15
sS'cpt_1p_ctp_2p_ctpI_1p_cpQM_0p_cpQ3_0p'
p17
I72
sS'cpt_0p_ctp_1p_ctpI_1p_cpQM_0p_cpQ3_2p'
p18
I106
sS'cpt_1p_ctp_2p_ctpI_0p_cpQM_0p_cpQ3_0p'
p19
I26
sS'cpt_0p_ctp_1p_ctpI_0p_cpQM_1p_cpQ3_1p'
p20
I44
sS'cpt_1p_ctp_1p_ctpI_0p_cpQM_1p_cpQ3_1p'
p21
I79
sS'cpt_0p_ctp_1p_ctpI_0p_cpQM_3p_cpQ3_0p'
p22
I107
sS'cpt_0p_ctp_0p_ctpI_0p_cpQM_0p_cpQ3_4p'
p23
I125
sS'cpt_0p_ctp_0p_ctpI_1p_cpQM_0p_cpQ3_1p'
p24
I17
sS'cpt_0p_ctp_0p_ctpI_0p_cpQM_2p_cpQ3_1p'
p25
I53
sS'cpt_0p_ctp_0p_ctpI_1p_cpQM_1p_cpQ3_2p'
p26
I119
sS'cpt_2p_ctp_2p_ctpI_0p_cpQM_0p_cpQ3_0p'
p27
I61
sS'cpt_0p_ctp_2p_ctpI_0p_cpQM_0p_cpQ3_0p'
p28
I11
sS'cpt_0p_ctp_0p_ctpI_0p_cpQM_1p_cpQ3_3p'
p29
I124
sS'cpt_1p_ctp_0p_ctpI_2p_cpQM_1p_cpQ3_0p'
p30
I82
sS'cpt_2p_ctp_0p_ctpI_0p_cpQM_1p_cpQ3_0p'
p31
I24
sS'cpt_1p_ctp_0p_ctpI_0p_cpQM_1p_cpQ3_0p'
p32
I9
sS'cpt_1p_ctp_0p_ctpI_1p_cpQM_0p_cpQ3_0p'
p33
I8
sS'cpt_0p_ctp_2p_ctpI_1p_cpQM_0p_cpQ3_0p'
p34
I37
sS'cpt_1p_ctp_0p_ctpI_1p_cpQM_1p_cpQ3_1p'
p35
I85
sS'cpt_1p_ctp_1p_ctpI_0p_cpQM_1p_cpQ3_0p'
p36
I28
sS'cpt_2p_ctp_0p_ctpI_1p_cpQM_1p_cpQ3_0p'
p37
I66
sS'cpt_0p_ctp_2p_ctpI_0p_cpQM_2p_cpQ3_0p'
p38
I98
sS'cpt_2p_ctp_1p_ctpI_0p_cpQM_0p_cpQ3_1p'
p39
I64
sS'cpt_0p_ctp_0p_ctpI_1p_cpQM_1p_cpQ3_0p'
p40
I16
sS'cpt_0p_ctp_2p_ctpI_2p_cpQM_0p_cpQ3_0p'
p41
I95
sS'cpt_0p_ctp_0p_ctpI_0p_cpQM_1p_cpQ3_0p'
p42
I4
sS'cpt_0p_ctp_1p_ctpI_2p_cpQM_0p_cpQ3_1p'
p43
I103
sS'cpt_0p_ctp_0p_ctpI_0p_cpQM_0p_cpQ3_1p'
p44
I5
sS'cpt_0p_ctp_1p_ctpI_3p_cpQM_0p_cpQ3_0p'
p45
I101
sS'cpt_0p_ctp_1p_ctpI_1p_cpQM_2p_cpQ3_0p'
p46
I104
sS'cpt_0p_ctp_1p_ctpI_0p_cpQM_0p_cpQ3_1p'
p47
I14
sS'cpt_1p_ctp_1p_ctpI_1p_cpQM_0p_cpQ3_0p'
p48
I27
sS'cpt_3p_ctp_1p_ctpI_0p_cpQM_0p_cpQ3_0p'
p49
I57
sS'cpt_0p_ctp_0p_ctpI_2p_cpQM_1p_cpQ3_0p'
p50
I47
sS'cpt_0p_ctp_1p_ctpI_0p_cpQM_1p_cpQ3_0p'
p51
I13
sS'cpt_2p_ctp_1p_ctpI_0p_cpQM_0p_cpQ3_0p'
p52
I22
sS'cpt_0p_ctp_2p_ctpI_0p_cpQM_1p_cpQ3_1p'
p53
I99
sS'cpt_3p_ctp_0p_ctpI_0p_cpQM_0p_cpQ3_1p'
p54
I60
sS'cpt_0p_ctp_0p_ctpI_1p_cpQM_0p_cpQ3_3p'
p55
I120
sS'cpt_0p_ctp_4p_ctpI_0p_cpQM_0p_cpQ3_0p'
p56
I91
sS'cpt_0p_ctp_1p_ctpI_2p_cpQM_0p_cpQ3_0p'
p57
I40
sS'cpt_0p_ctp_0p_ctpI_2p_cpQM_1p_cpQ3_1p'
p58
I115
sS'cpt_0p_ctp_2p_ctpI_1p_cpQM_1p_cpQ3_0p'
p59
I96
sS'cpt_0p_ctp_1p_ctpI_1p_cpQM_1p_cpQ3_1p'
p60
I105
sS'cpt_1p_ctp_0p_ctpI_0p_cpQM_2p_cpQ3_0p'
p61
I33
sS'cpt_1p_ctp_2p_ctpI_0p_cpQM_0p_cpQ3_1p'
p62
I74
sS'cpt_0p_ctp_3p_ctpI_0p_cpQM_0p_cpQ3_1p'
p63
I94
sS'cpt_0p_ctp_0p_ctpI_1p_cpQM_1p_cpQ3_1p'
p64
I50
sS'cpt_2p_ctp_1p_ctpI_0p_cpQM_1p_cpQ3_0p'
p65
I63
sS'cpt_0p_ctp_0p_ctpI_2p_cpQM_0p_cpQ3_2p'
p66
I116
sS'cpt_0p_ctp_0p_ctpI_2p_cpQM_2p_cpQ3_0p'
p67
I114
sS'cpt_0p_ctp_0p_ctpI_3p_cpQM_0p_cpQ3_0p'
p68
I46
sS'cpt_0p_ctp_1p_ctpI_0p_cpQM_2p_cpQ3_1p'
p69
I108
sS'cpt_0p_ctp_0p_ctpI_0p_cpQM_0p_cpQ3_3p'
p70
I55
sS'cpt_4p_ctp_0p_ctpI_0p_cpQM_0p_cpQ3_0p'
p71
I56
sS'cpt_0p_ctp_0p_ctpI_0p_cpQM_1p_cpQ3_2p'
p72
I54
sS'cpt_0p_ctp_1p_ctpI_0p_cpQM_2p_cpQ3_0p'
p73
I43
sS'cpt_1p_ctp_0p_ctpI_3p_cpQM_0p_cpQ3_0p'
p74
I81
sS'cpt_1p_ctp_0p_ctpI_2p_cpQM_0p_cpQ3_1p'
p75
I83
sS'cpt_0p_ctp_0p_ctpI_1p_cpQM_2p_cpQ3_1p'
p76
I118
sS'cpt_1p_ctp_1p_ctpI_2p_cpQM_0p_cpQ3_0p'
p77
I75
sS'cpt_1p_ctp_1p_ctpI_0p_cpQM_0p_cpQ3_1p'
p78
I29
sS'cpt_1p_ctp_0p_ctpI_1p_cpQM_2p_cpQ3_0p'
p79
I84
sS'cpt_2p_ctp_0p_ctpI_0p_cpQM_0p_cpQ3_1p'
p80
I25
sS'cpt_1p_ctp_1p_ctpI_0p_cpQM_0p_cpQ3_2p'
p81
I80
sS'cpt_0p_ctp_1p_ctpI_2p_cpQM_1p_cpQ3_0p'
p82
I102
sS'cpt_0p_ctp_0p_ctpI_0p_cpQM_1p_cpQ3_1p'
p83
I19
sS'cpt_0p_ctp_3p_ctpI_1p_cpQM_0p_cpQ3_0p'
p84
I92
sS'cpt_0p_ctp_0p_ctpI_0p_cpQM_0p_cpQ3_0p'
p85
I0
sS'cpt_0p_ctp_2p_ctpI_1p_cpQM_0p_cpQ3_1p'
p86
I97
sS'cpt_1p_ctp_0p_ctpI_0p_cpQM_0p_cpQ3_2p'
p87
I35
sS'cpt_1p_ctp_1p_ctpI_1p_cpQM_0p_cpQ3_1p'
p88
I77
sS'cpt_1p_ctp_0p_ctpI_2p_cpQM_0p_cpQ3_0p'
p89
I30
sS'cpt_0p_ctp_1p_ctpI_0p_cpQM_0p_cpQ3_2p'
p90
I45
sS'cpt_0p_ctp_1p_ctpI_0p_cpQM_1p_cpQ3_2p'
p91
I109
sS'cpt_2p_ctp_0p_ctpI_0p_cpQM_0p_cpQ3_2p'
p92
I70
sS'cpt_1p_ctp_0p_ctpI_0p_cpQM_1p_cpQ3_1p'
p93
I34
sS'cpt_3p_ctp_0p_ctpI_0p_cpQM_1p_cpQ3_0p'
p94
I59
sS'cpt_0p_ctp_0p_ctpI_1p_cpQM_2p_cpQ3_0p'
p95
I49
sS'cpt_1p_ctp_2p_ctpI_0p_cpQM_1p_cpQ3_0p'
p96
I73
sS'cpt_1p_ctp_3p_ctpI_0p_cpQM_0p_cpQ3_0p'
p97
I71
sS'cpt_0p_ctp_2p_ctpI_0p_cpQM_0p_cpQ3_1p'
p98
I39
sS'cpt_0p_ctp_0p_ctpI_1p_cpQM_0p_cpQ3_0p'
p99
I3
sS'cpt_0p_ctp_0p_ctpI_0p_cpQM_3p_cpQ3_1p'
p100
I122
sS'cpt_0p_ctp_1p_ctpI_0p_cpQM_0p_cpQ3_0p'
p101
I2
sS'cpt_0p_ctp_0p_ctpI_2p_cpQM_0p_cpQ3_1p'
p102
I48
sS'cpt_0p_ctp_0p_ctpI_0p_cpQM_2p_cpQ3_2p'
p103
I123
sS'cpt_1p_ctp_0p_ctpI_1p_cpQM_1p_cpQ3_0p'
p104
I31
sS'cpt_0p_ctp_1p_ctpI_1p_cpQM_0p_cpQ3_0p'
p105
I12
sS'cpt_1p_ctp_0p_ctpI_1p_cpQM_0p_cpQ3_1p'
p106
I32
sS'cpt_0p_ctp_3p_ctpI_0p_cpQM_1p_cpQ3_0p'
p107
I93
sS'cpt_2p_ctp_0p_ctpI_1p_cpQM_0p_cpQ3_1p'
p108
I67
sS'cpt_0p_ctp_1p_ctpI_1p_cpQM_1p_cpQ3_0p'
p109
I41
sS'cpt_3p_ctp_0p_ctpI_1p_cpQM_0p_cpQ3_0p'
p110
I58
sS'cpt_0p_ctp_0p_ctpI_0p_cpQM_3p_cpQ3_0p'
p111
I52
sS'cpt_0p_ctp_0p_ctpI_0p_cpQM_0p_cpQ3_2p'
p112
I20
sS'cpt_0p_ctp_2p_ctpI_0p_cpQM_0p_cpQ3_2p'
p113
I100
sS'cpt_1p_ctp_1p_ctpI_0p_cpQM_2p_cpQ3_0p'
p114
I78
sS'cpt_0p_ctp_1p_ctpI_0p_cpQM_0p_cpQ3_3p'
p115
I110
sS'cpt_1p_ctp_0p_ctpI_0p_cpQM_1p_cpQ3_2p'
p116
I89
sS'cpt_1p_ctp_0p_ctpI_0p_cpQM_0p_cpQ3_1p'
p117
I10
sS'cpt_2p_ctp_0p_ctpI_2p_cpQM_0p_cpQ3_0p'
p118
I65
sS'cpt_1p_ctp_0p_ctpI_0p_cpQM_0p_cpQ3_0p'
p119
I1
sS'cpt_0p_ctp_0p_ctpI_4p_cpQM_0p_cpQ3_0p'
p120
I111
sS'cpt_0p_ctp_1p_ctpI_1p_cpQM_0p_cpQ3_1p'
p121
I42
sS'cpt_1p_ctp_1p_ctpI_1p_cpQM_1p_cpQ3_0p'
p122
I76
sS'cpt_1p_ctp_0p_ctpI_0p_cpQM_0p_cpQ3_3p'
p123
I90
sS'cpt_1p_ctp_1p_ctpI_0p_cpQM_0p_cpQ3_0p'
p124
I7
sS'cpt_0p_ctp_0p_ctpI_3p_cpQM_1p_cpQ3_0p'
p125
I112
sS'cpt_0p_ctp_0p_ctpI_3p_cpQM_0p_cpQ3_1p'
p126
I113
sS'cpt_2p_ctp_0p_ctpI_0p_cpQM_2p_cpQ3_0p'
p127
I68
sS'cpt_2p_ctp_0p_ctpI_1p_cpQM_0p_cpQ3_0p'
p128
I23
sS'cpt_2p_ctp_0p_ctpI_0p_cpQM_0p_cpQ3_0p'
p129
I6
sS'cpt_1p_ctp_0p_ctpI_1p_cpQM_0p_cpQ3_2p'
p130
I86
ssS'order'
p131
(dp132
g131
I4
ss.