(dp0
S'ref_point'
p1
(dp2
S'ctW'
p3
S'4'
p4
sS'ctZI'
p5
g4
sS'ctWI'
p6
g4
sS'ctZ'
p7
g4
sS'ctG'
p8
g4
sS'ctGI'
p9
g4
ssS'rw_dict'
p10
(dp11
S'ctZ_0p_ctZI_0p_ctW_0p_ctWI_0p_ctG_1p_ctGI_1p'
p12
I26
sS'ctZ_0p_ctZI_1p_ctW_0p_ctWI_1p_ctG_0p_ctGI_0p'
p13
I15
sS'ctZ_0p_ctZI_2p_ctW_0p_ctWI_0p_ctG_0p_ctGI_0p'
p14
I13
sS'ctZ_1p_ctZI_0p_ctW_0p_ctWI_0p_ctG_1p_ctGI_0p'
p15
I11
sS'ctZ_0p_ctZI_0p_ctW_0p_ctWI_0p_ctG_2p_ctGI_0p'
p16
I25
sS'ctZ_1p_ctZI_0p_ctW_0p_ctWI_1p_ctG_0p_ctGI_0p'
p17
I10
sS'ctZ_0p_ctZI_0p_ctW_1p_ctWI_0p_ctG_1p_ctGI_0p'
p18
I20
sS'ctZ_0p_ctZI_0p_ctW_0p_ctWI_1p_ctG_0p_ctGI_1p'
p19
I24
sS'ctZ_0p_ctZI_0p_ctW_0p_ctWI_0p_ctG_0p_ctGI_1p'
p20
I6
sS'ctZ_1p_ctZI_1p_ctW_0p_ctWI_0p_ctG_0p_ctGI_0p'
p21
I8
sS'ctZ_0p_ctZI_0p_ctW_1p_ctWI_0p_ctG_0p_ctGI_1p'
p22
I21
sS'ctZ_0p_ctZI_1p_ctW_0p_ctWI_0p_ctG_0p_ctGI_1p'
p23
I17
sS'ctZ_0p_ctZI_0p_ctW_1p_ctWI_1p_ctG_0p_ctGI_0p'
p24
I19
sS'ctZ_0p_ctZI_0p_ctW_0p_ctWI_1p_ctG_1p_ctGI_0p'
p25
I23
sS'ctZ_0p_ctZI_1p_ctW_0p_ctWI_0p_ctG_1p_ctGI_0p'
p26
I16
sS'ctZ_1p_ctZI_0p_ctW_0p_ctWI_0p_ctG_0p_ctGI_1p'
p27
I12
sS'ctZ_0p_ctZI_0p_ctW_2p_ctWI_0p_ctG_0p_ctGI_0p'
p28
I18
sS'ctZ_0p_ctZI_0p_ctW_0p_ctWI_0p_ctG_1p_ctGI_0p'
p29
I5
sS'ctZ_2p_ctZI_0p_ctW_0p_ctWI_0p_ctG_0p_ctGI_0p'
p30
I7
sS'ctZ_0p_ctZI_1p_ctW_1p_ctWI_0p_ctG_0p_ctGI_0p'
p31
I14
sS'ctZ_0p_ctZI_0p_ctW_0p_ctWI_1p_ctG_0p_ctGI_0p'
p32
I4
sS'ctZ_1p_ctZI_0p_ctW_1p_ctWI_0p_ctG_0p_ctGI_0p'
p33
I9
sS'ctZ_0p_ctZI_1p_ctW_0p_ctWI_0p_ctG_0p_ctGI_0p'
p34
I2
sS'ctZ_0p_ctZI_0p_ctW_0p_ctWI_0p_ctG_0p_ctGI_0p'
p35
I0
sS'ctZ_0p_ctZI_0p_ctW_0p_ctWI_0p_ctG_0p_ctGI_2p'
p36
I27
sS'ctZ_0p_ctZI_0p_ctW_1p_ctWI_0p_ctG_0p_ctGI_0p'
p37
I3
sS'ctZ_1p_ctZI_0p_ctW_0p_ctWI_0p_ctG_0p_ctGI_0p'
p38
I1
sS'ctZ_0p_ctZI_0p_ctW_0p_ctWI_2p_ctG_0p_ctGI_0p'
p39
I22
ssS'order'
p40
(dp41
g40
I2
ss.