(dp0
S'ref_point'
p1
(dp2
S'ctp'
p3
S'0'
p4
sS'cpt'
p5
g4
sS'cpQ3'
p6
g4
sS'cpQM'
p7
g4
ssS'rw_dict'
p8
(dp9
S'cpt_2p_ctp_1p_cpQM_1p_cpQ3_0p'
p10
I40
sS'cpt_0p_ctp_4p_cpQM_0p_cpQ3_0p'
p11
I55
sS'cpt_0p_ctp_1p_cpQM_0p_cpQ3_0p'
p12
I2
sS'cpt_3p_ctp_0p_cpQM_1p_cpQ3_0p'
p13
I37
sS'cpt_0p_ctp_1p_cpQM_0p_cpQ3_2p'
p14
I30
sS'cpt_3p_ctp_0p_cpQM_0p_cpQ3_0p'
p15
I15
sS'cpt_1p_ctp_2p_cpQM_1p_cpQ3_0p'
p16
I46
sS'cpt_2p_ctp_0p_cpQM_1p_cpQ3_1p'
p17
I43
sS'cpt_0p_ctp_0p_cpQM_2p_cpQ3_1p'
p18
I32
sS'cpt_0p_ctp_2p_cpQM_0p_cpQ3_2p'
p19
I60
sS'cpt_0p_ctp_0p_cpQM_0p_cpQ3_2p'
p20
I14
sS'cpt_0p_ctp_0p_cpQM_4p_cpQ3_0p'
p21
I65
sS'cpt_3p_ctp_0p_cpQM_0p_cpQ3_1p'
p22
I38
sS'cpt_1p_ctp_1p_cpQM_0p_cpQ3_1p'
p23
I21
sS'cpt_2p_ctp_1p_cpQM_0p_cpQ3_1p'
p24
I41
sS'cpt_1p_ctp_1p_cpQM_1p_cpQ3_0p'
p25
I20
sS'cpt_2p_ctp_0p_cpQM_0p_cpQ3_1p'
p26
I18
sS'cpt_0p_ctp_3p_cpQM_0p_cpQ3_0p'
p27
I25
sS'cpt_1p_ctp_2p_cpQM_0p_cpQ3_0p'
p28
I19
sS'cpt_0p_ctp_0p_cpQM_1p_cpQ3_1p'
p29
I13
sS'cpt_0p_ctp_1p_cpQM_2p_cpQ3_0p'
p30
I28
sS'cpt_0p_ctp_0p_cpQM_0p_cpQ3_0p'
p31
I0
sS'cpt_1p_ctp_0p_cpQM_1p_cpQ3_1p'
p32
I23
sS'cpt_0p_ctp_0p_cpQM_0p_cpQ3_4p'
p33
I69
sS'cpt_1p_ctp_0p_cpQM_0p_cpQ3_2p'
p34
I24
sS'cpt_3p_ctp_1p_cpQM_0p_cpQ3_0p'
p35
I36
sS'cpt_1p_ctp_0p_cpQM_0p_cpQ3_0p'
p36
I1
sS'cpt_0p_ctp_0p_cpQM_1p_cpQ3_3p'
p37
I68
sS'cpt_0p_ctp_1p_cpQM_0p_cpQ3_1p'
p38
I11
sS'cpt_0p_ctp_1p_cpQM_1p_cpQ3_1p'
p39
I29
sS'cpt_0p_ctp_1p_cpQM_1p_cpQ3_0p'
p40
I10
sS'cpt_1p_ctp_1p_cpQM_2p_cpQ3_0p'
p41
I48
sS'cpt_1p_ctp_0p_cpQM_3p_cpQ3_0p'
p42
I51
sS'cpt_0p_ctp_1p_cpQM_0p_cpQ3_3p'
p43
I64
sS'cpt_1p_ctp_2p_cpQM_0p_cpQ3_1p'
p44
I47
sS'cpt_0p_ctp_3p_cpQM_1p_cpQ3_0p'
p45
I56
sS'cpt_1p_ctp_0p_cpQM_2p_cpQ3_0p'
p46
I22
sS'cpt_2p_ctp_0p_cpQM_1p_cpQ3_0p'
p47
I17
sS'cpt_1p_ctp_0p_cpQM_2p_cpQ3_1p'
p48
I52
sS'cpt_0p_ctp_1p_cpQM_1p_cpQ3_2p'
p49
I63
sS'cpt_0p_ctp_2p_cpQM_0p_cpQ3_1p'
p50
I27
sS'cpt_1p_ctp_3p_cpQM_0p_cpQ3_0p'
p51
I45
sS'cpt_0p_ctp_0p_cpQM_3p_cpQ3_1p'
p52
I66
sS'cpt_4p_ctp_0p_cpQM_0p_cpQ3_0p'
p53
I35
sS'cpt_1p_ctp_0p_cpQM_1p_cpQ3_0p'
p54
I7
sS'cpt_2p_ctp_1p_cpQM_0p_cpQ3_0p'
p55
I16
sS'cpt_2p_ctp_0p_cpQM_2p_cpQ3_0p'
p56
I42
sS'cpt_0p_ctp_0p_cpQM_0p_cpQ3_3p'
p57
I34
sS'cpt_2p_ctp_0p_cpQM_0p_cpQ3_2p'
p58
I44
sS'cpt_1p_ctp_1p_cpQM_0p_cpQ3_0p'
p59
I6
sS'cpt_0p_ctp_0p_cpQM_2p_cpQ3_0p'
p60
I12
sS'cpt_0p_ctp_0p_cpQM_2p_cpQ3_2p'
p61
I67
sS'cpt_1p_ctp_1p_cpQM_1p_cpQ3_1p'
p62
I49
sS'cpt_2p_ctp_2p_cpQM_0p_cpQ3_0p'
p63
I39
sS'cpt_0p_ctp_1p_cpQM_3p_cpQ3_0p'
p64
I61
sS'cpt_2p_ctp_0p_cpQM_0p_cpQ3_0p'
p65
I5
sS'cpt_0p_ctp_2p_cpQM_1p_cpQ3_0p'
p66
I26
sS'cpt_1p_ctp_0p_cpQM_1p_cpQ3_2p'
p67
I53
sS'cpt_0p_ctp_3p_cpQM_0p_cpQ3_1p'
p68
I57
sS'cpt_1p_ctp_0p_cpQM_0p_cpQ3_3p'
p69
I54
sS'cpt_0p_ctp_2p_cpQM_1p_cpQ3_1p'
p70
I59
sS'cpt_0p_ctp_1p_cpQM_2p_cpQ3_1p'
p71
I62
sS'cpt_0p_ctp_0p_cpQM_3p_cpQ3_0p'
p72
I31
sS'cpt_0p_ctp_2p_cpQM_2p_cpQ3_0p'
p73
I58
sS'cpt_0p_ctp_2p_cpQM_0p_cpQ3_0p'
p74
I9
sS'cpt_0p_ctp_0p_cpQM_1p_cpQ3_0p'
p75
I3
sS'cpt_1p_ctp_1p_cpQM_0p_cpQ3_2p'
p76
I50
sS'cpt_0p_ctp_0p_cpQM_1p_cpQ3_2p'
p77
I33
sS'cpt_1p_ctp_0p_cpQM_0p_cpQ3_1p'
p78
I8
sS'cpt_0p_ctp_0p_cpQM_0p_cpQ3_1p'
p79
I4
ssS'order'
p80
(dp81
g80
I4
ss.
