(dp0
S'ref_point'
p1
(dp2
S'ctZI'
p3
S'4'
p4
sS'ctW'
p5
g4
sS'ctWI'
p6
g4
sS'ctZ'
p7
g4
ssS'rw_dict'
p8
(dp9
S'ctp_0p_ctpI_1p_cpQM_0p_cpQ3_0p_cptb_1p_cptbI_0p_ctW_0p_ctWI_0p_ctZ_0p_ctZI_0p_cpt_0p'
p10
I26
sS'ctp_0p_ctpI_0p_cpQM_0p_cpQ3_0p_cptb_0p_cptbI_1p_ctW_0p_ctWI_0p_ctZ_0p_ctZI_0p_cpt_0p'
p11
I6
sS'ctp_0p_ctpI_0p_cpQM_0p_cpQ3_0p_cptb_1p_cptbI_0p_ctW_0p_ctWI_0p_ctZ_1p_ctZI_0p_cpt_0p'
p12
I54
sS'ctp_0p_ctpI_1p_cpQM_0p_cpQ3_0p_cptb_0p_cptbI_0p_ctW_1p_ctWI_0p_ctZ_0p_ctZI_0p_cpt_0p'
p13
I28
sS'ctp_0p_ctpI_0p_cpQM_0p_cpQ3_0p_cptb_0p_cptbI_0p_ctW_1p_ctWI_0p_ctZ_1p_ctZI_0p_cpt_0p'
p14
I65
sS'ctp_0p_ctpI_0p_cpQM_0p_cpQ3_0p_cptb_0p_cptbI_0p_ctW_0p_ctWI_0p_ctZ_0p_ctZI_2p_cpt_0p'
p15
I75
sS'ctp_1p_ctpI_1p_cpQM_0p_cpQ3_0p_cptb_0p_cptbI_0p_ctW_0p_ctWI_0p_ctZ_0p_ctZI_0p_cpt_0p'
p16
I13
sS'ctp_0p_ctpI_0p_cpQM_0p_cpQ3_0p_cptb_0p_cptbI_0p_ctW_0p_ctWI_2p_ctZ_0p_ctZI_0p_cpt_0p'
p17
I68
sS'ctp_0p_ctpI_0p_cpQM_0p_cpQ3_0p_cptb_0p_cptbI_0p_ctW_0p_ctWI_1p_ctZ_0p_ctZI_1p_cpt_0p'
p18
I70
sS'ctp_0p_ctpI_0p_cpQM_0p_cpQ3_0p_cptb_0p_cptbI_1p_ctW_1p_ctWI_0p_ctZ_0p_ctZI_0p_cpt_0p'
p19
I58
sS'ctp_0p_ctpI_0p_cpQM_0p_cpQ3_0p_cptb_0p_cptbI_0p_ctW_0p_ctWI_0p_ctZ_2p_ctZI_0p_cpt_0p'
p20
I72
sS'ctp_0p_ctpI_0p_cpQM_0p_cpQ3_0p_cptb_0p_cptbI_0p_ctW_0p_ctWI_0p_ctZ_0p_ctZI_0p_cpt_0p'
p21
I0
sS'ctp_1p_ctpI_0p_cpQM_0p_cpQ3_0p_cptb_0p_cptbI_0p_ctW_0p_ctWI_0p_ctZ_1p_ctZI_0p_cpt_0p'
p22
I20
sS'ctp_1p_ctpI_0p_cpQM_0p_cpQ3_0p_cptb_0p_cptbI_0p_ctW_0p_ctWI_0p_ctZ_0p_ctZI_1p_cpt_0p'
p23
I21
sS'ctp_0p_ctpI_0p_cpQM_0p_cpQ3_0p_cptb_1p_cptbI_1p_ctW_0p_ctWI_0p_ctZ_0p_ctZI_0p_cpt_0p'
p24
I51
sS'ctp_0p_ctpI_0p_cpQM_0p_cpQ3_0p_cptb_0p_cptbI_0p_ctW_0p_ctWI_1p_ctZ_0p_ctZI_0p_cpt_1p'
p25
I71
sS'ctp_0p_ctpI_0p_cpQM_0p_cpQ3_0p_cptb_0p_cptbI_0p_ctW_1p_ctWI_0p_ctZ_0p_ctZI_0p_cpt_1p'
p26
I67
sS'ctp_0p_ctpI_0p_cpQM_1p_cpQ3_0p_cptb_0p_cptbI_0p_ctW_0p_ctWI_0p_ctZ_0p_ctZI_0p_cpt_0p'
p27
I3
sS'ctp_0p_ctpI_1p_cpQM_1p_cpQ3_0p_cptb_0p_cptbI_0p_ctW_0p_ctWI_0p_ctZ_0p_ctZI_0p_cpt_0p'
p28
I24
sS'ctp_0p_ctpI_0p_cpQM_0p_cpQ3_0p_cptb_0p_cptbI_1p_ctW_0p_ctWI_0p_ctZ_0p_ctZI_0p_cpt_1p'
p29
I62
sS'ctp_0p_ctpI_0p_cpQM_0p_cpQ3_0p_cptb_1p_cptbI_0p_ctW_0p_ctWI_0p_ctZ_0p_ctZI_1p_cpt_0p'
p30
I55
sS'ctp_0p_ctpI_0p_cpQM_0p_cpQ3_1p_cptb_0p_cptbI_0p_ctW_0p_ctWI_0p_ctZ_0p_ctZI_0p_cpt_0p'
p31
I4
sS'ctp_0p_ctpI_0p_cpQM_0p_cpQ3_0p_cptb_0p_cptbI_0p_ctW_1p_ctWI_1p_ctZ_0p_ctZI_0p_cpt_0p'
p32
I64
sS'ctp_0p_ctpI_1p_cpQM_0p_cpQ3_0p_cptb_0p_cptbI_0p_ctW_0p_ctWI_0p_ctZ_1p_ctZI_0p_cpt_0p'
p33
I30
sS'ctp_0p_ctpI_0p_cpQM_0p_cpQ3_1p_cptb_0p_cptbI_0p_ctW_1p_ctWI_0p_ctZ_0p_ctZI_0p_cpt_0p'
p34
I45
sS'ctp_0p_ctpI_0p_cpQM_0p_cpQ3_0p_cptb_0p_cptbI_0p_ctW_0p_ctWI_0p_ctZ_1p_ctZI_0p_cpt_0p'
p35
I9
sS'ctp_0p_ctpI_1p_cpQM_0p_cpQ3_0p_cptb_0p_cptbI_0p_ctW_0p_ctWI_0p_ctZ_0p_ctZI_1p_cpt_0p'
p36
I31
sS'ctp_1p_ctpI_0p_cpQM_0p_cpQ3_0p_cptb_0p_cptbI_0p_ctW_0p_ctWI_0p_ctZ_0p_ctZI_0p_cpt_0p'
p37
I1
sS'ctp_0p_ctpI_0p_cpQM_1p_cpQ3_0p_cptb_0p_cptbI_0p_ctW_0p_ctWI_1p_ctZ_0p_ctZI_0p_cpt_0p'
p38
I38
sS'ctp_0p_ctpI_0p_cpQM_1p_cpQ3_0p_cptb_0p_cptbI_0p_ctW_0p_ctWI_0p_ctZ_0p_ctZI_1p_cpt_0p'
p39
I40
sS'ctp_0p_ctpI_0p_cpQM_0p_cpQ3_0p_cptb_0p_cptbI_0p_ctW_0p_ctWI_1p_ctZ_0p_ctZI_0p_cpt_0p'
p40
I8
sS'ctp_0p_ctpI_1p_cpQM_0p_cpQ3_0p_cptb_0p_cptbI_0p_ctW_0p_ctWI_1p_ctZ_0p_ctZI_0p_cpt_0p'
p41
I29
sS'ctp_0p_ctpI_1p_cpQM_0p_cpQ3_0p_cptb_0p_cptbI_1p_ctW_0p_ctWI_0p_ctZ_0p_ctZI_0p_cpt_0p'
p42
I27
sS'ctp_0p_ctpI_2p_cpQM_0p_cpQ3_0p_cptb_0p_cptbI_0p_ctW_0p_ctWI_0p_ctZ_0p_ctZI_0p_cpt_0p'
p43
I23
sS'ctp_0p_ctpI_0p_cpQM_1p_cpQ3_1p_cptb_0p_cptbI_0p_ctW_0p_ctWI_0p_ctZ_0p_ctZI_0p_cpt_0p'
p44
I34
sS'ctp_0p_ctpI_1p_cpQM_0p_cpQ3_0p_cptb_0p_cptbI_0p_ctW_0p_ctWI_0p_ctZ_0p_ctZI_0p_cpt_1p'
p45
I32
sS'ctp_0p_ctpI_0p_cpQM_0p_cpQ3_0p_cptb_0p_cptbI_0p_ctW_2p_ctWI_0p_ctZ_0p_ctZI_0p_cpt_0p'
p46
I63
sS'ctp_1p_ctpI_0p_cpQM_0p_cpQ3_1p_cptb_0p_cptbI_0p_ctW_0p_ctWI_0p_ctZ_0p_ctZI_0p_cpt_0p'
p47
I15
sS'ctp_0p_ctpI_0p_cpQM_0p_cpQ3_0p_cptb_0p_cptbI_1p_ctW_0p_ctWI_0p_ctZ_0p_ctZI_1p_cpt_0p'
p48
I61
sS'ctp_0p_ctpI_0p_cpQM_0p_cpQ3_0p_cptb_0p_cptbI_0p_ctW_1p_ctWI_0p_ctZ_0p_ctZI_0p_cpt_0p'
p49
I7
sS'ctp_0p_ctpI_0p_cpQM_0p_cpQ3_0p_cptb_2p_cptbI_0p_ctW_0p_ctWI_0p_ctZ_0p_ctZI_0p_cpt_0p'
p50
I50
sS'ctp_0p_ctpI_0p_cpQM_0p_cpQ3_0p_cptb_0p_cptbI_1p_ctW_0p_ctWI_0p_ctZ_1p_ctZI_0p_cpt_0p'
p51
I60
sS'ctp_0p_ctpI_0p_cpQM_0p_cpQ3_1p_cptb_1p_cptbI_0p_ctW_0p_ctWI_0p_ctZ_0p_ctZI_0p_cpt_0p'
p52
I43
sS'ctp_0p_ctpI_0p_cpQM_0p_cpQ3_0p_cptb_1p_cptbI_0p_ctW_0p_ctWI_1p_ctZ_0p_ctZI_0p_cpt_0p'
p53
I53
sS'ctp_0p_ctpI_0p_cpQM_0p_cpQ3_0p_cptb_0p_cptbI_0p_ctW_0p_ctWI_0p_ctZ_1p_ctZI_1p_cpt_0p'
p54
I73
sS'ctp_1p_ctpI_0p_cpQM_0p_cpQ3_0p_cptb_0p_cptbI_1p_ctW_0p_ctWI_0p_ctZ_0p_ctZI_0p_cpt_0p'
p55
I17
sS'ctp_0p_ctpI_1p_cpQM_0p_cpQ3_1p_cptb_0p_cptbI_0p_ctW_0p_ctWI_0p_ctZ_0p_ctZI_0p_cpt_0p'
p56
I25
sS'ctp_0p_ctpI_0p_cpQM_0p_cpQ3_1p_cptb_0p_cptbI_0p_ctW_0p_ctWI_0p_ctZ_1p_ctZI_0p_cpt_0p'
p57
I47
sS'ctp_0p_ctpI_0p_cpQM_1p_cpQ3_0p_cptb_0p_cptbI_1p_ctW_0p_ctWI_0p_ctZ_0p_ctZI_0p_cpt_0p'
p58
I36
sS'ctp_1p_ctpI_0p_cpQM_1p_cpQ3_0p_cptb_0p_cptbI_0p_ctW_0p_ctWI_0p_ctZ_0p_ctZI_0p_cpt_0p'
p59
I14
sS'ctp_0p_ctpI_0p_cpQM_0p_cpQ3_2p_cptb_0p_cptbI_0p_ctW_0p_ctWI_0p_ctZ_0p_ctZI_0p_cpt_0p'
p60
I42
sS'ctp_0p_ctpI_0p_cpQM_0p_cpQ3_1p_cptb_0p_cptbI_0p_ctW_0p_ctWI_0p_ctZ_0p_ctZI_1p_cpt_0p'
p61
I48
sS'ctp_0p_ctpI_0p_cpQM_1p_cpQ3_0p_cptb_1p_cptbI_0p_ctW_0p_ctWI_0p_ctZ_0p_ctZI_0p_cpt_0p'
p62
I35
sS'ctp_0p_ctpI_0p_cpQM_0p_cpQ3_0p_cptb_0p_cptbI_0p_ctW_0p_ctWI_0p_ctZ_0p_ctZI_1p_cpt_0p'
p63
I10
sS'ctp_0p_ctpI_0p_cpQM_0p_cpQ3_0p_cptb_0p_cptbI_0p_ctW_0p_ctWI_0p_ctZ_0p_ctZI_1p_cpt_1p'
p64
I76
sS'ctp_0p_ctpI_0p_cpQM_0p_cpQ3_0p_cptb_0p_cptbI_0p_ctW_0p_ctWI_0p_ctZ_0p_ctZI_0p_cpt_1p'
p65
I11
sS'ctp_0p_ctpI_0p_cpQM_0p_cpQ3_0p_cptb_0p_cptbI_0p_ctW_0p_ctWI_0p_ctZ_0p_ctZI_0p_cpt_2p'
p66
I77
sS'ctp_0p_ctpI_0p_cpQM_1p_cpQ3_0p_cptb_0p_cptbI_0p_ctW_0p_ctWI_0p_ctZ_0p_ctZI_0p_cpt_1p'
p67
I41
sS'ctp_0p_ctpI_0p_cpQM_0p_cpQ3_0p_cptb_0p_cptbI_0p_ctW_0p_ctWI_0p_ctZ_1p_ctZI_0p_cpt_1p'
p68
I74
sS'ctp_1p_ctpI_0p_cpQM_0p_cpQ3_0p_cptb_0p_cptbI_0p_ctW_0p_ctWI_1p_ctZ_0p_ctZI_0p_cpt_0p'
p69
I19
sS'ctp_0p_ctpI_0p_cpQM_0p_cpQ3_0p_cptb_0p_cptbI_2p_ctW_0p_ctWI_0p_ctZ_0p_ctZI_0p_cpt_0p'
p70
I57
sS'ctp_0p_ctpI_0p_cpQM_0p_cpQ3_1p_cptb_0p_cptbI_1p_ctW_0p_ctWI_0p_ctZ_0p_ctZI_0p_cpt_0p'
p71
I44
sS'ctp_0p_ctpI_0p_cpQM_0p_cpQ3_0p_cptb_0p_cptbI_1p_ctW_0p_ctWI_1p_ctZ_0p_ctZI_0p_cpt_0p'
p72
I59
sS'ctp_0p_ctpI_0p_cpQM_0p_cpQ3_0p_cptb_1p_cptbI_0p_ctW_1p_ctWI_0p_ctZ_0p_ctZI_0p_cpt_0p'
p73
I52
sS'ctp_1p_ctpI_0p_cpQM_0p_cpQ3_0p_cptb_0p_cptbI_0p_ctW_0p_ctWI_0p_ctZ_0p_ctZI_0p_cpt_1p'
p74
I22
sS'ctp_0p_ctpI_0p_cpQM_0p_cpQ3_0p_cptb_0p_cptbI_0p_ctW_1p_ctWI_0p_ctZ_0p_ctZI_1p_cpt_0p'
p75
I66
sS'ctp_2p_ctpI_0p_cpQM_0p_cpQ3_0p_cptb_0p_cptbI_0p_ctW_0p_ctWI_0p_ctZ_0p_ctZI_0p_cpt_0p'
p76
I12
sS'ctp_1p_ctpI_0p_cpQM_0p_cpQ3_0p_cptb_1p_cptbI_0p_ctW_0p_ctWI_0p_ctZ_0p_ctZI_0p_cpt_0p'
p77
I16
sS'ctp_0p_ctpI_0p_cpQM_0p_cpQ3_0p_cptb_0p_cptbI_0p_ctW_0p_ctWI_1p_ctZ_1p_ctZI_0p_cpt_0p'
p78
I69
sS'ctp_0p_ctpI_0p_cpQM_2p_cpQ3_0p_cptb_0p_cptbI_0p_ctW_0p_ctWI_0p_ctZ_0p_ctZI_0p_cpt_0p'
p79
I33
sS'ctp_1p_ctpI_0p_cpQM_0p_cpQ3_0p_cptb_0p_cptbI_0p_ctW_1p_ctWI_0p_ctZ_0p_ctZI_0p_cpt_0p'
p80
I18
sS'ctp_0p_ctpI_0p_cpQM_0p_cpQ3_0p_cptb_1p_cptbI_0p_ctW_0p_ctWI_0p_ctZ_0p_ctZI_0p_cpt_0p'
p81
I5
sS'ctp_0p_ctpI_0p_cpQM_1p_cpQ3_0p_cptb_0p_cptbI_0p_ctW_1p_ctWI_0p_ctZ_0p_ctZI_0p_cpt_0p'
p82
I37
sS'ctp_0p_ctpI_0p_cpQM_0p_cpQ3_1p_cptb_0p_cptbI_0p_ctW_0p_ctWI_0p_ctZ_0p_ctZI_0p_cpt_1p'
p83
I49
sS'ctp_0p_ctpI_0p_cpQM_0p_cpQ3_0p_cptb_1p_cptbI_0p_ctW_0p_ctWI_0p_ctZ_0p_ctZI_0p_cpt_1p'
p84
I56
sS'ctp_0p_ctpI_0p_cpQM_0p_cpQ3_1p_cptb_0p_cptbI_0p_ctW_0p_ctWI_1p_ctZ_0p_ctZI_0p_cpt_0p'
p85
I46
sS'ctp_0p_ctpI_0p_cpQM_1p_cpQ3_0p_cptb_0p_cptbI_0p_ctW_0p_ctWI_0p_ctZ_1p_ctZI_0p_cpt_0p'
p86
I39
sS'ctp_0p_ctpI_1p_cpQM_0p_cpQ3_0p_cptb_0p_cptbI_0p_ctW_0p_ctWI_0p_ctZ_0p_ctZI_0p_cpt_0p'
p87
I2
ssS'order'
p88
(dp89
g88
I2
ss.
