(dp0
S'ref_point'
p1
(dp2
S'ctZI'
p3
S'1'
p4
sS'ctW'
p5
S'-1'
p6
sS'ctWI'
p7
S'-1'
p8
sS'ctZ'
p9
g4
ssS'rw_dict'
p10
(dp11
S'ctZ_0p_ctZI_0p_ctW_0p_ctWI_0p5'
p12
I4
sS'ctZ_0p_ctZI_0p_ctW_0p_ctWI_1p'
p13
I14
sS'ctZ_0p_ctZI_0p5_ctW_0p_ctWI_0p'
p14
I2
sS'ctZ_0p5_ctZI_0p_ctW_0p_ctWI_0p'
p15
I1
sS'ctZ_0p_ctZI_1p_ctW_0p_ctWI_0p'
p16
I9
sS'ctZ_0p_ctZI_0p_ctW_0p5_ctWI_0p5'
p17
I13
sS'ctZ_0p_ctZI_0p5_ctW_0p_ctWI_0p5'
p18
I11
sS'ctZ_1p_ctZI_0p_ctW_0p_ctWI_0p'
p19
I5
sS'ctZ_0p5_ctZI_0p_ctW_0p_ctWI_0p5'
p20
I8
sS'ctZ_0p5_ctZI_0p_ctW_0p5_ctWI_0p'
p21
I7
sS'ctZ_0p_ctZI_0p_ctW_1p_ctWI_0p'
p22
I12
sS'ctZ_0p_ctZI_0p5_ctW_0p5_ctWI_0p'
p23
I10
sS'ctZ_0p_ctZI_0p_ctW_0p_ctWI_0p'
p24
I0
sS'ctZ_0p5_ctZI_0p5_ctW_0p_ctWI_0p'
p25
I6
sS'ctZ_0p_ctZI_0p_ctW_0p5_ctWI_0p'
p26
I3
ssS'order'
p27
(dp28
g27
I2
ss.