(dp0
S'ref_point'
p1
(dp2
sS'rw_dict'
p3
(dp4
S'cuHAbs3x3_2p_cHq1Abs33_0p_cHq3Abs33_0p_cHuAbs33_0p'
p5
I5
sS'cuHAbs3x3_1p_cHq1Abs33_0p_cHq3Abs33_1p_cHuAbs33_0p'
p6
I7
sS'cuHAbs3x3_0p_cHq1Abs33_0p_cHq3Abs33_4p_cHuAbs33_0p'
p7
I65
sS'cuHAbs3x3_1p_cHq1Abs33_2p_cHq3Abs33_0p_cHuAbs33_0p'
p8
I19
sS'cuHAbs3x3_2p_cHq1Abs33_0p_cHq3Abs33_0p_cHuAbs33_2p'
p9
I44
sS'cuHAbs3x3_1p_cHq1Abs33_0p_cHq3Abs33_0p_cHuAbs33_0p'
p10
I1
sS'cuHAbs3x3_0p_cHq1Abs33_0p_cHq3Abs33_0p_cHuAbs33_2p'
p11
I14
sS'cuHAbs3x3_0p_cHq1Abs33_0p_cHq3Abs33_2p_cHuAbs33_1p'
p12
I32
sS'cuHAbs3x3_0p_cHq1Abs33_0p_cHq3Abs33_1p_cHuAbs33_0p'
p13
I3
sS'cuHAbs3x3_0p_cHq1Abs33_2p_cHq3Abs33_0p_cHuAbs33_0p'
p14
I9
sS'cuHAbs3x3_0p_cHq1Abs33_2p_cHq3Abs33_1p_cHuAbs33_0p'
p15
I26
sS'cuHAbs3x3_3p_cHq1Abs33_1p_cHq3Abs33_0p_cHuAbs33_0p'
p16
I36
sS'cuHAbs3x3_2p_cHq1Abs33_1p_cHq3Abs33_0p_cHuAbs33_0p'
p17
I16
sS'cuHAbs3x3_0p_cHq1Abs33_0p_cHq3Abs33_0p_cHuAbs33_0p'
p18
I0
sS'cuHAbs3x3_1p_cHq1Abs33_1p_cHq3Abs33_0p_cHuAbs33_0p'
p19
I6
sS'cuHAbs3x3_2p_cHq1Abs33_0p_cHq3Abs33_2p_cHuAbs33_0p'
p20
I42
sS'cuHAbs3x3_2p_cHq1Abs33_0p_cHq3Abs33_1p_cHuAbs33_1p'
p21
I43
sS'cuHAbs3x3_1p_cHq1Abs33_0p_cHq3Abs33_0p_cHuAbs33_3p'
p22
I54
sS'cuHAbs3x3_0p_cHq1Abs33_1p_cHq3Abs33_1p_cHuAbs33_0p'
p23
I10
sS'cuHAbs3x3_3p_cHq1Abs33_0p_cHq3Abs33_0p_cHuAbs33_0p'
p24
I15
sS'cuHAbs3x3_0p_cHq1Abs33_1p_cHq3Abs33_3p_cHuAbs33_0p'
p25
I61
sS'cuHAbs3x3_2p_cHq1Abs33_0p_cHq3Abs33_1p_cHuAbs33_0p'
p26
I17
sS'cuHAbs3x3_1p_cHq1Abs33_1p_cHq3Abs33_0p_cHuAbs33_2p'
p27
I50
sS'cuHAbs3x3_0p_cHq1Abs33_3p_cHq3Abs33_0p_cHuAbs33_0p'
p28
I25
sS'cuHAbs3x3_1p_cHq1Abs33_1p_cHq3Abs33_2p_cHuAbs33_0p'
p29
I48
sS'cuHAbs3x3_1p_cHq1Abs33_1p_cHq3Abs33_1p_cHuAbs33_1p'
p30
I49
sS'cuHAbs3x3_0p_cHq1Abs33_0p_cHq3Abs33_3p_cHuAbs33_0p'
p31
I31
sS'cuHAbs3x3_1p_cHq1Abs33_2p_cHq3Abs33_0p_cHuAbs33_1p'
p32
I47
sS'cuHAbs3x3_1p_cHq1Abs33_1p_cHq3Abs33_1p_cHuAbs33_0p'
p33
I20
sS'cuHAbs3x3_0p_cHq1Abs33_1p_cHq3Abs33_2p_cHuAbs33_0p'
p34
I28
sS'cuHAbs3x3_0p_cHq1Abs33_2p_cHq3Abs33_1p_cHuAbs33_1p'
p35
I59
sS'cuHAbs3x3_2p_cHq1Abs33_1p_cHq3Abs33_0p_cHuAbs33_1p'
p36
I41
sS'cuHAbs3x3_0p_cHq1Abs33_2p_cHq3Abs33_0p_cHuAbs33_2p'
p37
I60
sS'cuHAbs3x3_4p_cHq1Abs33_0p_cHq3Abs33_0p_cHuAbs33_0p'
p38
I35
sS'cuHAbs3x3_1p_cHq1Abs33_0p_cHq3Abs33_1p_cHuAbs33_1p'
p39
I23
sS'cuHAbs3x3_3p_cHq1Abs33_0p_cHq3Abs33_1p_cHuAbs33_0p'
p40
I37
sS'cuHAbs3x3_1p_cHq1Abs33_3p_cHq3Abs33_0p_cHuAbs33_0p'
p41
I45
sS'cuHAbs3x3_2p_cHq1Abs33_0p_cHq3Abs33_0p_cHuAbs33_1p'
p42
I18
sS'cuHAbs3x3_1p_cHq1Abs33_0p_cHq3Abs33_2p_cHuAbs33_1p'
p43
I52
sS'cuHAbs3x3_2p_cHq1Abs33_2p_cHq3Abs33_0p_cHuAbs33_0p'
p44
I39
sS'cuHAbs3x3_1p_cHq1Abs33_2p_cHq3Abs33_1p_cHuAbs33_0p'
p45
I46
sS'cuHAbs3x3_0p_cHq1Abs33_3p_cHq3Abs33_1p_cHuAbs33_0p'
p46
I56
sS'cuHAbs3x3_2p_cHq1Abs33_1p_cHq3Abs33_1p_cHuAbs33_0p'
p47
I40
sS'cuHAbs3x3_0p_cHq1Abs33_0p_cHq3Abs33_2p_cHuAbs33_0p'
p48
I12
sS'cuHAbs3x3_0p_cHq1Abs33_0p_cHq3Abs33_0p_cHuAbs33_3p'
p49
I34
sS'cuHAbs3x3_0p_cHq1Abs33_0p_cHq3Abs33_0p_cHuAbs33_1p'
p50
I4
sS'cuHAbs3x3_1p_cHq1Abs33_0p_cHq3Abs33_0p_cHuAbs33_2p'
p51
I24
sS'cuHAbs3x3_0p_cHq1Abs33_2p_cHq3Abs33_0p_cHuAbs33_1p'
p52
I27
sS'cuHAbs3x3_1p_cHq1Abs33_0p_cHq3Abs33_0p_cHuAbs33_1p'
p53
I8
sS'cuHAbs3x3_1p_cHq1Abs33_0p_cHq3Abs33_2p_cHuAbs33_0p'
p54
I22
sS'cuHAbs3x3_0p_cHq1Abs33_0p_cHq3Abs33_2p_cHuAbs33_2p'
p55
I67
sS'cuHAbs3x3_0p_cHq1Abs33_0p_cHq3Abs33_1p_cHuAbs33_1p'
p56
I13
sS'cuHAbs3x3_1p_cHq1Abs33_1p_cHq3Abs33_0p_cHuAbs33_1p'
p57
I21
sS'cuHAbs3x3_0p_cHq1Abs33_1p_cHq3Abs33_0p_cHuAbs33_1p'
p58
I11
sS'cuHAbs3x3_0p_cHq1Abs33_1p_cHq3Abs33_0p_cHuAbs33_3p'
p59
I64
sS'cuHAbs3x3_3p_cHq1Abs33_0p_cHq3Abs33_0p_cHuAbs33_1p'
p60
I38
sS'cuHAbs3x3_0p_cHq1Abs33_0p_cHq3Abs33_3p_cHuAbs33_1p'
p61
I66
sS'cuHAbs3x3_1p_cHq1Abs33_0p_cHq3Abs33_3p_cHuAbs33_0p'
p62
I51
sS'cuHAbs3x3_0p_cHq1Abs33_1p_cHq3Abs33_1p_cHuAbs33_1p'
p63
I29
sS'cuHAbs3x3_0p_cHq1Abs33_1p_cHq3Abs33_0p_cHuAbs33_0p'
p64
I2
sS'cuHAbs3x3_0p_cHq1Abs33_0p_cHq3Abs33_1p_cHuAbs33_3p'
p65
I68
sS'cuHAbs3x3_0p_cHq1Abs33_1p_cHq3Abs33_0p_cHuAbs33_2p'
p66
I30
sS'cuHAbs3x3_0p_cHq1Abs33_0p_cHq3Abs33_0p_cHuAbs33_4p'
p67
I69
sS'cuHAbs3x3_0p_cHq1Abs33_0p_cHq3Abs33_1p_cHuAbs33_2p'
p68
I33
sS'cuHAbs3x3_0p_cHq1Abs33_3p_cHq3Abs33_0p_cHuAbs33_1p'
p69
I57
sS'cuHAbs3x3_0p_cHq1Abs33_1p_cHq3Abs33_1p_cHuAbs33_2p'
p70
I63
sS'cuHAbs3x3_0p_cHq1Abs33_1p_cHq3Abs33_2p_cHuAbs33_1p'
p71
I62
sS'cuHAbs3x3_1p_cHq1Abs33_0p_cHq3Abs33_1p_cHuAbs33_2p'
p72
I53
sS'cuHAbs3x3_0p_cHq1Abs33_2p_cHq3Abs33_2p_cHuAbs33_0p'
p73
I58
sS'cuHAbs3x3_0p_cHq1Abs33_4p_cHq3Abs33_0p_cHuAbs33_0p'
p74
I55
ssS'order'
p75
(dp76
g75
I4
ss.
