(dp0
S'ref_point'
p1
(dp2
sS'rw_dict'
p3
(dp4
S'ctp_0p_ctpI_0p_cpQM_0p_cpQ3_0p_cptb_0p_cptbI_1p_cpt_1p'
p5
I34
sS'ctp_1p_ctpI_0p_cpQM_0p_cpQ3_1p_cptb_0p_cptbI_0p_cpt_0p'
p6
I11
sS'ctp_2p_ctpI_0p_cpQM_0p_cpQ3_0p_cptb_0p_cptbI_0p_cpt_0p'
p7
I8
sS'ctp_1p_ctpI_0p_cpQM_1p_cpQ3_0p_cptb_0p_cptbI_0p_cpt_0p'
p8
I10
sS'ctp_1p_ctpI_1p_cpQM_0p_cpQ3_0p_cptb_0p_cptbI_0p_cpt_0p'
p9
I9
sS'ctp_0p_ctpI_0p_cpQM_0p_cpQ3_1p_cptb_0p_cptbI_0p_cpt_0p'
p10
I4
sS'ctp_0p_ctpI_1p_cpQM_0p_cpQ3_1p_cptb_0p_cptbI_0p_cpt_0p'
p11
I17
sS'ctp_0p_ctpI_0p_cpQM_0p_cpQ3_0p_cptb_0p_cptbI_0p_cpt_2p'
p12
I35
sS'ctp_0p_ctpI_1p_cpQM_1p_cpQ3_0p_cptb_0p_cptbI_0p_cpt_0p'
p13
I16
sS'ctp_0p_ctpI_0p_cpQM_1p_cpQ3_0p_cptb_0p_cptbI_1p_cpt_0p'
p14
I24
sS'ctp_1p_ctpI_0p_cpQM_0p_cpQ3_0p_cptb_0p_cptbI_0p_cpt_1p'
p15
I14
sS'ctp_0p_ctpI_0p_cpQM_0p_cpQ3_0p_cptb_0p_cptbI_0p_cpt_0p'
p16
I0
sS'ctp_0p_ctpI_0p_cpQM_0p_cpQ3_1p_cptb_0p_cptbI_1p_cpt_0p'
p17
I28
sS'ctp_0p_ctpI_0p_cpQM_0p_cpQ3_0p_cptb_2p_cptbI_0p_cpt_0p'
p18
I30
sS'ctp_0p_ctpI_0p_cpQM_0p_cpQ3_0p_cptb_1p_cptbI_0p_cpt_1p'
p19
I32
sS'ctp_1p_ctpI_0p_cpQM_0p_cpQ3_0p_cptb_0p_cptbI_1p_cpt_0p'
p20
I13
sS'ctp_0p_ctpI_1p_cpQM_0p_cpQ3_0p_cptb_0p_cptbI_0p_cpt_1p'
p21
I20
sS'ctp_0p_ctpI_0p_cpQM_1p_cpQ3_0p_cptb_0p_cptbI_0p_cpt_1p'
p22
I25
sS'ctp_0p_ctpI_1p_cpQM_0p_cpQ3_0p_cptb_1p_cptbI_0p_cpt_0p'
p23
I18
sS'ctp_0p_ctpI_0p_cpQM_0p_cpQ3_1p_cptb_1p_cptbI_0p_cpt_0p'
p24
I27
sS'ctp_0p_ctpI_0p_cpQM_0p_cpQ3_0p_cptb_0p_cptbI_1p_cpt_0p'
p25
I6
sS'ctp_0p_ctpI_0p_cpQM_0p_cpQ3_1p_cptb_0p_cptbI_0p_cpt_1p'
p26
I29
sS'ctp_1p_ctpI_0p_cpQM_0p_cpQ3_0p_cptb_0p_cptbI_0p_cpt_0p'
p27
I1
sS'ctp_0p_ctpI_0p_cpQM_0p_cpQ3_0p_cptb_0p_cptbI_0p_cpt_1p'
p28
I7
sS'ctp_0p_ctpI_0p_cpQM_0p_cpQ3_0p_cptb_0p_cptbI_2p_cpt_0p'
p29
I33
sS'ctp_0p_ctpI_0p_cpQM_0p_cpQ3_0p_cptb_1p_cptbI_0p_cpt_0p'
p30
I5
sS'ctp_0p_ctpI_0p_cpQM_0p_cpQ3_0p_cptb_1p_cptbI_1p_cpt_0p'
p31
I31
sS'ctp_0p_ctpI_1p_cpQM_0p_cpQ3_0p_cptb_0p_cptbI_0p_cpt_0p'
p32
I2
sS'ctp_0p_ctpI_0p_cpQM_1p_cpQ3_1p_cptb_0p_cptbI_0p_cpt_0p'
p33
I22
sS'ctp_0p_ctpI_0p_cpQM_1p_cpQ3_0p_cptb_0p_cptbI_0p_cpt_0p'
p34
I3
sS'ctp_0p_ctpI_0p_cpQM_1p_cpQ3_0p_cptb_1p_cptbI_0p_cpt_0p'
p35
I23
sS'ctp_0p_ctpI_2p_cpQM_0p_cpQ3_0p_cptb_0p_cptbI_0p_cpt_0p'
p36
I15
sS'ctp_0p_ctpI_0p_cpQM_0p_cpQ3_2p_cptb_0p_cptbI_0p_cpt_0p'
p37
I26
sS'ctp_1p_ctpI_0p_cpQM_0p_cpQ3_0p_cptb_1p_cptbI_0p_cpt_0p'
p38
I12
sS'ctp_0p_ctpI_1p_cpQM_0p_cpQ3_0p_cptb_0p_cptbI_1p_cpt_0p'
p39
I19
sS'ctp_0p_ctpI_0p_cpQM_2p_cpQ3_0p_cptb_0p_cptbI_0p_cpt_0p'
p40
I21
ssS'order'
p41
(dp42
g41
I2
ss.
