(dp0
S'ref_point'
p1
(dp2
S'ctZI'
p3
S'4'
p4
sS'ctZ'
p5
g4
ssS'rw_dict'
p6
(dp7
S'cpt_1p_cpQM_0p_ctZ_1p_ctZI_1p'
p8
I23
sS'cpt_3p_cpQM_0p_ctZ_1p_ctZI_0p'
p9
I37
sS'cpt_0p_cpQM_1p_ctZ_0p_ctZI_2p'
p10
I30
sS'cpt_1p_cpQM_0p_ctZ_0p_ctZI_1p'
p11
I8
sS'cpt_0p_cpQM_0p_ctZ_1p_ctZI_2p'
p12
I33
sS'cpt_1p_cpQM_0p_ctZ_0p_ctZI_3p'
p13
I54
sS'cpt_0p_cpQM_1p_ctZ_1p_ctZI_1p'
p14
I29
sS'cpt_0p_cpQM_1p_ctZ_2p_ctZI_0p'
p15
I28
sS'cpt_0p_cpQM_2p_ctZ_1p_ctZI_0p'
p16
I26
sS'cpt_2p_cpQM_2p_ctZ_0p_ctZI_0p'
p17
I39
sS'cpt_0p_cpQM_0p_ctZ_1p_ctZI_0p'
p18
I3
sS'cpt_0p_cpQM_1p_ctZ_3p_ctZI_0p'
p19
I61
sS'cpt_0p_cpQM_3p_ctZ_1p_ctZI_0p'
p20
I56
sS'cpt_0p_cpQM_0p_ctZ_0p_ctZI_0p'
p21
I0
sS'cpt_1p_cpQM_1p_ctZ_1p_ctZI_0p'
p22
I20
sS'cpt_0p_cpQM_1p_ctZ_1p_ctZI_0p'
p23
I10
sS'cpt_2p_cpQM_1p_ctZ_1p_ctZI_0p'
p24
I40
sS'cpt_0p_cpQM_2p_ctZ_1p_ctZI_1p'
p25
I59
sS'cpt_2p_cpQM_0p_ctZ_1p_ctZI_0p'
p26
I17
sS'cpt_3p_cpQM_1p_ctZ_0p_ctZI_0p'
p27
I36
sS'cpt_4p_cpQM_0p_ctZ_0p_ctZI_0p'
p28
I35
sS'cpt_0p_cpQM_0p_ctZ_2p_ctZI_1p'
p29
I32
sS'cpt_0p_cpQM_1p_ctZ_2p_ctZI_1p'
p30
I62
sS'cpt_0p_cpQM_3p_ctZ_0p_ctZI_1p'
p31
I57
sS'cpt_0p_cpQM_0p_ctZ_0p_ctZI_3p'
p32
I34
sS'cpt_2p_cpQM_0p_ctZ_0p_ctZI_1p'
p33
I18
sS'cpt_2p_cpQM_0p_ctZ_2p_ctZI_0p'
p34
I42
sS'cpt_1p_cpQM_0p_ctZ_2p_ctZI_1p'
p35
I52
sS'cpt_0p_cpQM_2p_ctZ_0p_ctZI_1p'
p36
I27
sS'cpt_2p_cpQM_1p_ctZ_0p_ctZI_1p'
p37
I41
sS'cpt_1p_cpQM_1p_ctZ_0p_ctZI_2p'
p38
I50
sS'cpt_1p_cpQM_1p_ctZ_0p_ctZI_0p'
p39
I6
sS'cpt_1p_cpQM_0p_ctZ_1p_ctZI_2p'
p40
I53
sS'cpt_1p_cpQM_2p_ctZ_0p_ctZI_1p'
p41
I47
sS'cpt_2p_cpQM_0p_ctZ_1p_ctZI_1p'
p42
I43
sS'cpt_3p_cpQM_0p_ctZ_0p_ctZI_1p'
p43
I38
sS'cpt_0p_cpQM_1p_ctZ_0p_ctZI_3p'
p44
I64
sS'cpt_0p_cpQM_0p_ctZ_1p_ctZI_3p'
p45
I68
sS'cpt_1p_cpQM_0p_ctZ_0p_ctZI_2p'
p46
I24
sS'cpt_1p_cpQM_0p_ctZ_1p_ctZI_0p'
p47
I7
sS'cpt_0p_cpQM_1p_ctZ_1p_ctZI_2p'
p48
I63
sS'cpt_0p_cpQM_0p_ctZ_3p_ctZI_0p'
p49
I31
sS'cpt_0p_cpQM_2p_ctZ_0p_ctZI_0p'
p50
I9
sS'cpt_0p_cpQM_0p_ctZ_1p_ctZI_1p'
p51
I13
sS'cpt_0p_cpQM_0p_ctZ_3p_ctZI_1p'
p52
I66
sS'cpt_1p_cpQM_1p_ctZ_1p_ctZI_1p'
p53
I49
sS'cpt_0p_cpQM_0p_ctZ_0p_ctZI_1p'
p54
I4
sS'cpt_0p_cpQM_0p_ctZ_4p_ctZI_0p'
p55
I65
sS'cpt_0p_cpQM_4p_ctZ_0p_ctZI_0p'
p56
I55
sS'cpt_0p_cpQM_0p_ctZ_2p_ctZI_2p'
p57
I67
sS'cpt_0p_cpQM_0p_ctZ_0p_ctZI_4p'
p58
I69
sS'cpt_1p_cpQM_3p_ctZ_0p_ctZI_0p'
p59
I45
sS'cpt_1p_cpQM_0p_ctZ_0p_ctZI_0p'
p60
I1
sS'cpt_1p_cpQM_2p_ctZ_1p_ctZI_0p'
p61
I46
sS'cpt_1p_cpQM_0p_ctZ_2p_ctZI_0p'
p62
I22
sS'cpt_0p_cpQM_1p_ctZ_0p_ctZI_1p'
p63
I11
sS'cpt_1p_cpQM_0p_ctZ_3p_ctZI_0p'
p64
I51
sS'cpt_1p_cpQM_1p_ctZ_2p_ctZI_0p'
p65
I48
sS'cpt_0p_cpQM_3p_ctZ_0p_ctZI_0p'
p66
I25
sS'cpt_0p_cpQM_2p_ctZ_2p_ctZI_0p'
p67
I58
sS'cpt_0p_cpQM_0p_ctZ_0p_ctZI_2p'
p68
I14
sS'cpt_2p_cpQM_1p_ctZ_0p_ctZI_0p'
p69
I16
sS'cpt_2p_cpQM_0p_ctZ_0p_ctZI_0p'
p70
I5
sS'cpt_3p_cpQM_0p_ctZ_0p_ctZI_0p'
p71
I15
sS'cpt_1p_cpQM_1p_ctZ_0p_ctZI_1p'
p72
I21
sS'cpt_0p_cpQM_0p_ctZ_2p_ctZI_0p'
p73
I12
sS'cpt_0p_cpQM_2p_ctZ_0p_ctZI_2p'
p74
I60
sS'cpt_1p_cpQM_2p_ctZ_0p_ctZI_0p'
p75
I19
sS'cpt_0p_cpQM_1p_ctZ_0p_ctZI_0p'
p76
I2
sS'cpt_2p_cpQM_0p_ctZ_0p_ctZI_2p'
p77
I44
ssS'order'
p78
(dp79
g78
I4
ss.
